Component: ARM Compiler 5.06 update 5 (build 528) Tool: armlink [4d35e2]

==============================================================================

Section Cross References

    startup_stm32f10x_md.o(RESET) refers to startup_stm32f10x_md.o(STACK) for __initial_sp
    startup_stm32f10x_md.o(RESET) refers to startup_stm32f10x_md.o(.text) for Reset_Handler
    startup_stm32f10x_md.o(RESET) refers to stm32f10x_it.o(i.NMI_Handler) for NMI_Handler
    startup_stm32f10x_md.o(RESET) refers to stm32f10x_it.o(i.HardFault_Handler) for HardFault_Handler
    startup_stm32f10x_md.o(RESET) refers to stm32f10x_it.o(i.MemManage_Handler) for MemManage_Handler
    startup_stm32f10x_md.o(RESET) refers to stm32f10x_it.o(i.BusFault_Handler) for BusFault_Handler
    startup_stm32f10x_md.o(RESET) refers to stm32f10x_it.o(i.UsageFault_Handler) for UsageFault_Handler
    startup_stm32f10x_md.o(RESET) refers to stm32f10x_it.o(i.SVC_Handler) for SVC_Handler
    startup_stm32f10x_md.o(RESET) refers to stm32f10x_it.o(i.DebugMon_Handler) for DebugMon_Handler
    startup_stm32f10x_md.o(RESET) refers to stm32f10x_it.o(i.PendSV_Handler) for PendSV_Handler
    startup_stm32f10x_md.o(RESET) refers to stm32f10x_it.o(i.SysTick_Handler) for SysTick_Handler
    startup_stm32f10x_md.o(RESET) refers to main.o(i.EXTI15_10_IRQHandler) for EXTI15_10_IRQHandler
    startup_stm32f10x_md.o(.text) refers to system_stm32f10x.o(i.SystemInit) for SystemInit
    startup_stm32f10x_md.o(.text) refers to entry.o(.ARM.Collect$$$$00000000) for __main
    system_stm32f10x.o(i.SetSysClock) refers to system_stm32f10x.o(i.SetSysClockTo72) for SetSysClockTo72
    system_stm32f10x.o(i.SystemCoreClockUpdate) refers to system_stm32f10x.o(.data) for .data
    system_stm32f10x.o(i.SystemInit) refers to system_stm32f10x.o(i.SetSysClock) for SetSysClock
    stm32f10x_adc.o(i.ADC_DeInit) refers to stm32f10x_rcc.o(i.RCC_APB2PeriphResetCmd) for RCC_APB2PeriphResetCmd
    stm32f10x_bkp.o(i.BKP_DeInit) refers to stm32f10x_rcc.o(i.RCC_BackupResetCmd) for RCC_BackupResetCmd
    stm32f10x_can.o(i.CAN_DeInit) refers to stm32f10x_rcc.o(i.RCC_APB1PeriphResetCmd) for RCC_APB1PeriphResetCmd
    stm32f10x_can.o(i.CAN_GetITStatus) refers to stm32f10x_can.o(i.CheckITStatus) for CheckITStatus
    stm32f10x_cec.o(i.CEC_DeInit) refers to stm32f10x_rcc.o(i.RCC_APB1PeriphResetCmd) for RCC_APB1PeriphResetCmd
    stm32f10x_dac.o(i.DAC_DeInit) refers to stm32f10x_rcc.o(i.RCC_APB1PeriphResetCmd) for RCC_APB1PeriphResetCmd
    stm32f10x_flash.o(i.FLASH_EnableWriteProtection) refers to stm32f10x_flash.o(i.FLASH_WaitForLastOperation) for FLASH_WaitForLastOperation
    stm32f10x_flash.o(i.FLASH_EraseAllBank1Pages) refers to stm32f10x_flash.o(i.FLASH_WaitForLastBank1Operation) for FLASH_WaitForLastBank1Operation
    stm32f10x_flash.o(i.FLASH_EraseAllPages) refers to stm32f10x_flash.o(i.FLASH_WaitForLastOperation) for FLASH_WaitForLastOperation
    stm32f10x_flash.o(i.FLASH_EraseOptionBytes) refers to stm32f10x_flash.o(i.FLASH_GetReadOutProtectionStatus) for FLASH_GetReadOutProtectionStatus
    stm32f10x_flash.o(i.FLASH_EraseOptionBytes) refers to stm32f10x_flash.o(i.FLASH_WaitForLastOperation) for FLASH_WaitForLastOperation
    stm32f10x_flash.o(i.FLASH_ErasePage) refers to stm32f10x_flash.o(i.FLASH_WaitForLastOperation) for FLASH_WaitForLastOperation
    stm32f10x_flash.o(i.FLASH_ProgramHalfWord) refers to stm32f10x_flash.o(i.FLASH_WaitForLastOperation) for FLASH_WaitForLastOperation
    stm32f10x_flash.o(i.FLASH_ProgramOptionByteData) refers to stm32f10x_flash.o(i.FLASH_WaitForLastOperation) for FLASH_WaitForLastOperation
    stm32f10x_flash.o(i.FLASH_ProgramWord) refers to stm32f10x_flash.o(i.FLASH_WaitForLastOperation) for FLASH_WaitForLastOperation
    stm32f10x_flash.o(i.FLASH_ReadOutProtection) refers to stm32f10x_flash.o(i.FLASH_WaitForLastOperation) for FLASH_WaitForLastOperation
    stm32f10x_flash.o(i.FLASH_UserOptionByteConfig) refers to stm32f10x_flash.o(i.FLASH_WaitForLastOperation) for FLASH_WaitForLastOperation
    stm32f10x_flash.o(i.FLASH_WaitForLastBank1Operation) refers to stm32f10x_flash.o(i.FLASH_GetBank1Status) for FLASH_GetBank1Status
    stm32f10x_flash.o(i.FLASH_WaitForLastOperation) refers to stm32f10x_flash.o(i.FLASH_GetBank1Status) for FLASH_GetBank1Status
    stm32f10x_gpio.o(i.GPIO_AFIODeInit) refers to stm32f10x_rcc.o(i.RCC_APB2PeriphResetCmd) for RCC_APB2PeriphResetCmd
    stm32f10x_gpio.o(i.GPIO_DeInit) refers to stm32f10x_rcc.o(i.RCC_APB2PeriphResetCmd) for RCC_APB2PeriphResetCmd
    stm32f10x_i2c.o(i.I2C_DeInit) refers to stm32f10x_rcc.o(i.RCC_APB1PeriphResetCmd) for RCC_APB1PeriphResetCmd
    stm32f10x_i2c.o(i.I2C_Init) refers to stm32f10x_rcc.o(i.RCC_GetClocksFreq) for RCC_GetClocksFreq
    stm32f10x_pwr.o(i.PWR_DeInit) refers to stm32f10x_rcc.o(i.RCC_APB1PeriphResetCmd) for RCC_APB1PeriphResetCmd
    stm32f10x_rcc.o(i.RCC_GetClocksFreq) refers to stm32f10x_rcc.o(.data) for .data
    stm32f10x_rcc.o(i.RCC_WaitForHSEStartUp) refers to stm32f10x_rcc.o(i.RCC_GetFlagStatus) for RCC_GetFlagStatus
    stm32f10x_rtc.o(i.RTC_SetAlarm) refers to stm32f10x_rtc.o(i.RTC_EnterConfigMode) for RTC_EnterConfigMode
    stm32f10x_rtc.o(i.RTC_SetAlarm) refers to stm32f10x_rtc.o(i.RTC_ExitConfigMode) for RTC_ExitConfigMode
    stm32f10x_rtc.o(i.RTC_SetCounter) refers to stm32f10x_rtc.o(i.RTC_EnterConfigMode) for RTC_EnterConfigMode
    stm32f10x_rtc.o(i.RTC_SetCounter) refers to stm32f10x_rtc.o(i.RTC_ExitConfigMode) for RTC_ExitConfigMode
    stm32f10x_rtc.o(i.RTC_SetPrescaler) refers to stm32f10x_rtc.o(i.RTC_EnterConfigMode) for RTC_EnterConfigMode
    stm32f10x_rtc.o(i.RTC_SetPrescaler) refers to stm32f10x_rtc.o(i.RTC_ExitConfigMode) for RTC_ExitConfigMode
    stm32f10x_spi.o(i.I2S_Init) refers to stm32f10x_rcc.o(i.RCC_GetClocksFreq) for RCC_GetClocksFreq
    stm32f10x_spi.o(i.SPI_I2S_DeInit) refers to stm32f10x_rcc.o(i.RCC_APB2PeriphResetCmd) for RCC_APB2PeriphResetCmd
    stm32f10x_spi.o(i.SPI_I2S_DeInit) refers to stm32f10x_rcc.o(i.RCC_APB1PeriphResetCmd) for RCC_APB1PeriphResetCmd
    stm32f10x_tim.o(i.TIM_DeInit) refers to stm32f10x_rcc.o(i.RCC_APB2PeriphResetCmd) for RCC_APB2PeriphResetCmd
    stm32f10x_tim.o(i.TIM_DeInit) refers to stm32f10x_rcc.o(i.RCC_APB1PeriphResetCmd) for RCC_APB1PeriphResetCmd
    stm32f10x_tim.o(i.TIM_ETRClockMode1Config) refers to stm32f10x_tim.o(i.TIM_ETRConfig) for TIM_ETRConfig
    stm32f10x_tim.o(i.TIM_ETRClockMode2Config) refers to stm32f10x_tim.o(i.TIM_ETRConfig) for TIM_ETRConfig
    stm32f10x_tim.o(i.TIM_ICInit) refers to stm32f10x_tim.o(i.TI4_Config) for TI4_Config
    stm32f10x_tim.o(i.TIM_ICInit) refers to stm32f10x_tim.o(i.TIM_SetIC4Prescaler) for TIM_SetIC4Prescaler
    stm32f10x_tim.o(i.TIM_ICInit) refers to stm32f10x_tim.o(i.TI1_Config) for TI1_Config
    stm32f10x_tim.o(i.TIM_ICInit) refers to stm32f10x_tim.o(i.TIM_SetIC1Prescaler) for TIM_SetIC1Prescaler
    stm32f10x_tim.o(i.TIM_ICInit) refers to stm32f10x_tim.o(i.TI2_Config) for TI2_Config
    stm32f10x_tim.o(i.TIM_ICInit) refers to stm32f10x_tim.o(i.TIM_SetIC2Prescaler) for TIM_SetIC2Prescaler
    stm32f10x_tim.o(i.TIM_ICInit) refers to stm32f10x_tim.o(i.TI3_Config) for TI3_Config
    stm32f10x_tim.o(i.TIM_ICInit) refers to stm32f10x_tim.o(i.TIM_SetIC3Prescaler) for TIM_SetIC3Prescaler
    stm32f10x_tim.o(i.TIM_ITRxExternalClockConfig) refers to stm32f10x_tim.o(i.TIM_SelectInputTrigger) for TIM_SelectInputTrigger
    stm32f10x_tim.o(i.TIM_PWMIConfig) refers to stm32f10x_tim.o(i.TI2_Config) for TI2_Config
    stm32f10x_tim.o(i.TIM_PWMIConfig) refers to stm32f10x_tim.o(i.TIM_SetIC2Prescaler) for TIM_SetIC2Prescaler
    stm32f10x_tim.o(i.TIM_PWMIConfig) refers to stm32f10x_tim.o(i.TI1_Config) for TI1_Config
    stm32f10x_tim.o(i.TIM_PWMIConfig) refers to stm32f10x_tim.o(i.TIM_SetIC1Prescaler) for TIM_SetIC1Prescaler
    stm32f10x_tim.o(i.TIM_TIxExternalClockConfig) refers to stm32f10x_tim.o(i.TI1_Config) for TI1_Config
    stm32f10x_tim.o(i.TIM_TIxExternalClockConfig) refers to stm32f10x_tim.o(i.TIM_SelectInputTrigger) for TIM_SelectInputTrigger
    stm32f10x_tim.o(i.TIM_TIxExternalClockConfig) refers to stm32f10x_tim.o(i.TI2_Config) for TI2_Config
    stm32f10x_usart.o(i.USART_DeInit) refers to stm32f10x_rcc.o(i.RCC_APB2PeriphResetCmd) for RCC_APB2PeriphResetCmd
    stm32f10x_usart.o(i.USART_DeInit) refers to stm32f10x_rcc.o(i.RCC_APB1PeriphResetCmd) for RCC_APB1PeriphResetCmd
    stm32f10x_usart.o(i.USART_Init) refers to stm32f10x_rcc.o(i.RCC_GetClocksFreq) for RCC_GetClocksFreq
    stm32f10x_wwdg.o(i.WWDG_DeInit) refers to stm32f10x_rcc.o(i.RCC_APB1PeriphResetCmd) for RCC_APB1PeriphResetCmd
    delay.o(i.Delay_ms) refers to delay.o(i.Delay_us) for Delay_us
    delay.o(i.Delay_s) refers to delay.o(i.Delay_ms) for Delay_ms
    led.o(i.LED1_OFF) refers to stm32f10x_gpio.o(i.GPIO_SetBits) for GPIO_SetBits
    led.o(i.LED1_ON) refers to stm32f10x_gpio.o(i.GPIO_ResetBits) for GPIO_ResetBits
    led.o(i.LED1_Turn) refers to stm32f10x_gpio.o(i.GPIO_ReadOutputDataBit) for GPIO_ReadOutputDataBit
    led.o(i.LED1_Turn) refers to stm32f10x_gpio.o(i.GPIO_ResetBits) for GPIO_ResetBits
    led.o(i.LED1_Turn) refers to stm32f10x_gpio.o(i.GPIO_SetBits) for GPIO_SetBits
    led.o(i.LED2_OFF) refers to stm32f10x_gpio.o(i.GPIO_SetBits) for GPIO_SetBits
    led.o(i.LED2_ON) refers to stm32f10x_gpio.o(i.GPIO_ResetBits) for GPIO_ResetBits
    led.o(i.LED2_Turn) refers to stm32f10x_gpio.o(i.GPIO_ReadOutputDataBit) for GPIO_ReadOutputDataBit
    led.o(i.LED2_Turn) refers to stm32f10x_gpio.o(i.GPIO_ResetBits) for GPIO_ResetBits
    led.o(i.LED2_Turn) refers to stm32f10x_gpio.o(i.GPIO_SetBits) for GPIO_SetBits
    led.o(i.LED_Init) refers to stm32f10x_rcc.o(i.RCC_APB2PeriphClockCmd) for RCC_APB2PeriphClockCmd
    led.o(i.LED_Init) refers to stm32f10x_gpio.o(i.GPIO_Init) for GPIO_Init
    led.o(i.LED_Init) refers to stm32f10x_gpio.o(i.GPIO_SetBits) for GPIO_SetBits
    key.o(i.Key_Init) refers to stm32f10x_rcc.o(i.RCC_APB2PeriphClockCmd) for RCC_APB2PeriphClockCmd
    key.o(i.Key_Init) refers to stm32f10x_gpio.o(i.GPIO_Init) for GPIO_Init
    key.o(i.Key_Init) refers to stm32f10x_gpio.o(i.GPIO_EXTILineConfig) for GPIO_EXTILineConfig
    key.o(i.Key_Init) refers to stm32f10x_exti.o(i.EXTI_Init) for EXTI_Init
    key.o(i.Key_Init) refers to misc.o(i.NVIC_PriorityGroupConfig) for NVIC_PriorityGroupConfig
    key.o(i.Key_Init) refers to misc.o(i.NVIC_Init) for NVIC_Init
    oled.o(i.OLED_Clear) refers to oled.o(i.OLED_SetCursor) for OLED_SetCursor
    oled.o(i.OLED_Clear) refers to oled.o(i.OLED_WriteData) for OLED_WriteData
    oled.o(i.OLED_I2C_Init) refers to stm32f10x_rcc.o(i.RCC_APB2PeriphClockCmd) for RCC_APB2PeriphClockCmd
    oled.o(i.OLED_I2C_Init) refers to stm32f10x_gpio.o(i.GPIO_Init) for GPIO_Init
    oled.o(i.OLED_I2C_Init) refers to stm32f10x_gpio.o(i.GPIO_WriteBit) for GPIO_WriteBit
    oled.o(i.OLED_I2C_SendByte) refers to stm32f10x_gpio.o(i.GPIO_WriteBit) for GPIO_WriteBit
    oled.o(i.OLED_I2C_Start) refers to stm32f10x_gpio.o(i.GPIO_WriteBit) for GPIO_WriteBit
    oled.o(i.OLED_I2C_Stop) refers to stm32f10x_gpio.o(i.GPIO_WriteBit) for GPIO_WriteBit
    oled.o(i.OLED_Init) refers to oled.o(i.OLED_I2C_Init) for OLED_I2C_Init
    oled.o(i.OLED_Init) refers to oled.o(i.OLED_WriteCommand) for OLED_WriteCommand
    oled.o(i.OLED_Init) refers to oled.o(i.OLED_Clear) for OLED_Clear
    oled.o(i.OLED_SetCursor) refers to oled.o(i.OLED_WriteCommand) for OLED_WriteCommand
    oled.o(i.OLED_ShowBinNum) refers to oled.o(i.OLED_Pow) for OLED_Pow
    oled.o(i.OLED_ShowBinNum) refers to oled.o(i.OLED_ShowChar) for OLED_ShowChar
    oled.o(i.OLED_ShowChar) refers to oled.o(i.OLED_SetCursor) for OLED_SetCursor
    oled.o(i.OLED_ShowChar) refers to oled.o(i.OLED_WriteData) for OLED_WriteData
    oled.o(i.OLED_ShowChar) refers to oled.o(.constdata) for .constdata
    oled.o(i.OLED_ShowHexNum) refers to oled.o(i.OLED_Pow) for OLED_Pow
    oled.o(i.OLED_ShowHexNum) refers to oled.o(i.OLED_ShowChar) for OLED_ShowChar
    oled.o(i.OLED_ShowNum) refers to oled.o(i.OLED_Pow) for OLED_Pow
    oled.o(i.OLED_ShowNum) refers to oled.o(i.OLED_ShowChar) for OLED_ShowChar
    oled.o(i.OLED_ShowSignedNum) refers to oled.o(i.OLED_ShowChar) for OLED_ShowChar
    oled.o(i.OLED_ShowSignedNum) refers to oled.o(i.OLED_Pow) for OLED_Pow
    oled.o(i.OLED_ShowString) refers to oled.o(i.OLED_ShowChar) for OLED_ShowChar
    oled.o(i.OLED_WriteCommand) refers to oled.o(i.OLED_I2C_Start) for OLED_I2C_Start
    oled.o(i.OLED_WriteCommand) refers to oled.o(i.OLED_I2C_SendByte) for OLED_I2C_SendByte
    oled.o(i.OLED_WriteCommand) refers to oled.o(i.OLED_I2C_Stop) for OLED_I2C_Stop
    oled.o(i.OLED_WriteData) refers to oled.o(i.OLED_I2C_Start) for OLED_I2C_Start
    oled.o(i.OLED_WriteData) refers to oled.o(i.OLED_I2C_SendByte) for OLED_I2C_SendByte
    oled.o(i.OLED_WriteData) refers to oled.o(i.OLED_I2C_Stop) for OLED_I2C_Stop
    serial.o(i.Serial_AutoSendNumber) refers to serial.o(i.Serial_SendByte) for Serial_SendByte
    serial.o(i.Serial_Init) refers to stm32f10x_rcc.o(i.RCC_APB2PeriphClockCmd) for RCC_APB2PeriphClockCmd
    serial.o(i.Serial_Init) refers to stm32f10x_gpio.o(i.GPIO_Init) for GPIO_Init
    serial.o(i.Serial_Init) refers to stm32f10x_usart.o(i.USART_Init) for USART_Init
    serial.o(i.Serial_Init) refers to stm32f10x_usart.o(i.USART_Cmd) for USART_Cmd
    serial.o(i.Serial_Printf) refers to printfa.o(i.__0vsprintf) for vsprintf
    serial.o(i.Serial_Printf) refers to serial.o(i.Serial_SendString) for Serial_SendString
    serial.o(i.Serial_SendArray) refers to serial.o(i.Serial_SendByte) for Serial_SendByte
    serial.o(i.Serial_SendByte) refers to stm32f10x_usart.o(i.USART_SendData) for USART_SendData
    serial.o(i.Serial_SendByte) refers to stm32f10x_usart.o(i.USART_GetFlagStatus) for USART_GetFlagStatus
    serial.o(i.Serial_SendFloat) refers to serial.o(i.Serial_SendByte) for Serial_SendByte
    serial.o(i.Serial_SendFloat) refers to ffixui.o(.text) for __aeabi_f2uiz
    serial.o(i.Serial_SendFloat) refers to serial.o(i.Serial_AutoSendNumber) for Serial_AutoSendNumber
    serial.o(i.Serial_SendFloat) refers to ffltui.o(.text) for __aeabi_ui2f
    serial.o(i.Serial_SendFloat) refers to fadd.o(.text) for __aeabi_frsub
    serial.o(i.Serial_SendFloat) refers to fmul.o(.text) for __aeabi_fmul
    serial.o(i.Serial_SendFloat) refers to f2d.o(.text) for __aeabi_f2d
    serial.o(i.Serial_SendFloat) refers to dadd.o(.text) for __aeabi_dadd
    serial.o(i.Serial_SendFloat) refers to dfixui.o(.text) for __aeabi_d2uiz
    serial.o(i.Serial_SendNumber) refers to serial.o(i.Serial_Pow) for Serial_Pow
    serial.o(i.Serial_SendNumber) refers to serial.o(i.Serial_SendByte) for Serial_SendByte
    serial.o(i.Serial_SendString) refers to serial.o(i.Serial_SendByte) for Serial_SendByte
    serial.o(i.fputc) refers to serial.o(i.Serial_SendByte) for Serial_SendByte
    mpu6050.o(i.MPU6050_GetData) refers to mpu6050.o(i.MPU6050_ReadReg) for MPU6050_ReadReg
    mpu6050.o(i.MPU6050_GetDataArray) refers to mpu6050.o(i.MPU6050_GetData) for MPU6050_GetData
    mpu6050.o(i.MPU6050_GetID) refers to mpu6050.o(i.MPU6050_ReadReg) for MPU6050_ReadReg
    mpu6050.o(i.MPU6050_Init) refers to stm32f10x_rcc.o(i.RCC_APB1PeriphClockCmd) for RCC_APB1PeriphClockCmd
    mpu6050.o(i.MPU6050_Init) refers to stm32f10x_rcc.o(i.RCC_APB2PeriphClockCmd) for RCC_APB2PeriphClockCmd
    mpu6050.o(i.MPU6050_Init) refers to stm32f10x_gpio.o(i.GPIO_Init) for GPIO_Init
    mpu6050.o(i.MPU6050_Init) refers to stm32f10x_i2c.o(i.I2C_Init) for I2C_Init
    mpu6050.o(i.MPU6050_Init) refers to stm32f10x_i2c.o(i.I2C_Cmd) for I2C_Cmd
    mpu6050.o(i.MPU6050_Init) refers to mpu6050.o(i.MPU6050_WriteReg) for MPU6050_WriteReg
    mpu6050.o(i.MPU6050_ReadReg) refers to stm32f10x_i2c.o(i.I2C_GenerateSTART) for I2C_GenerateSTART
    mpu6050.o(i.MPU6050_ReadReg) refers to mpu6050.o(i.MPU6050_WaitEvent) for MPU6050_WaitEvent
    mpu6050.o(i.MPU6050_ReadReg) refers to stm32f10x_i2c.o(i.I2C_Send7bitAddress) for I2C_Send7bitAddress
    mpu6050.o(i.MPU6050_ReadReg) refers to stm32f10x_i2c.o(i.I2C_SendData) for I2C_SendData
    mpu6050.o(i.MPU6050_ReadReg) refers to stm32f10x_i2c.o(i.I2C_AcknowledgeConfig) for I2C_AcknowledgeConfig
    mpu6050.o(i.MPU6050_ReadReg) refers to stm32f10x_i2c.o(i.I2C_GenerateSTOP) for I2C_GenerateSTOP
    mpu6050.o(i.MPU6050_ReadReg) refers to stm32f10x_i2c.o(i.I2C_ReceiveData) for I2C_ReceiveData
    mpu6050.o(i.MPU6050_WaitEvent) refers to stm32f10x_i2c.o(i.I2C_CheckEvent) for I2C_CheckEvent
    mpu6050.o(i.MPU6050_WriteReg) refers to stm32f10x_i2c.o(i.I2C_GenerateSTART) for I2C_GenerateSTART
    mpu6050.o(i.MPU6050_WriteReg) refers to mpu6050.o(i.MPU6050_WaitEvent) for MPU6050_WaitEvent
    mpu6050.o(i.MPU6050_WriteReg) refers to stm32f10x_i2c.o(i.I2C_Send7bitAddress) for I2C_Send7bitAddress
    mpu6050.o(i.MPU6050_WriteReg) refers to stm32f10x_i2c.o(i.I2C_SendData) for I2C_SendData
    mpu6050.o(i.MPU6050_WriteReg) refers to stm32f10x_i2c.o(i.I2C_GenerateSTOP) for I2C_GenerateSTOP
    main.o(i.EXTI15_10_IRQHandler) refers to stm32f10x_exti.o(i.EXTI_GetITStatus) for EXTI_GetITStatus
    main.o(i.EXTI15_10_IRQHandler) refers to stm32f10x_exti.o(i.EXTI_ClearITPendingBit) for EXTI_ClearITPendingBit
    main.o(i.EXTI15_10_IRQHandler) refers to main.o(.data) for .data
    main.o(i.main) refers to oled.o(i.OLED_Init) for OLED_Init
    main.o(i.main) refers to oled.o(i.OLED_Clear) for OLED_Clear
    main.o(i.main) refers to serial.o(i.Serial_Init) for Serial_Init
    main.o(i.main) refers to mpu6050.o(i.MPU6050_Init) for MPU6050_Init
    main.o(i.main) refers to key.o(i.Key_Init) for Key_Init
    main.o(i.main) refers to oled.o(i.OLED_ShowString) for OLED_ShowString
    main.o(i.main) refers to nnom.o(i.nnom_set_static_buf) for nnom_set_static_buf
    main.o(i.main) refers to main.o(i.nnom_model_create) for nnom_model_create
    main.o(i.main) refers to mpu6050.o(i.MPU6050_GetDataArray) for MPU6050_GetDataArray
    main.o(i.main) refers to main.o(i.model_feed_data) for model_feed_data
    main.o(i.main) refers to nnom.o(i.model_run) for model_run
    main.o(i.main) refers to oled.o(i.OLED_ShowNum) for OLED_ShowNum
    main.o(i.main) refers to main.o(.bss) for .bss
    main.o(i.main) refers to main.o(.data) for .data
    main.o(i.model_feed_data) refers to serial.o(i.Serial_SendString) for Serial_SendString
    main.o(i.model_feed_data) refers to dflti.o(.text) for __aeabi_i2d
    main.o(i.model_feed_data) refers to dscalb.o(.text) for __ARM_scalbn
    main.o(i.model_feed_data) refers to d2f.o(.text) for __aeabi_d2f
    main.o(i.model_feed_data) refers to f2d.o(.text) for __aeabi_f2d
    main.o(i.model_feed_data) refers to round.o(i.round) for round
    main.o(i.model_feed_data) refers to dfixi.o(.text) for __aeabi_d2iz
    main.o(i.model_feed_data) refers to serial.o(i.Serial_SendFloat) for Serial_SendFloat
    main.o(i.model_feed_data) refers to main.o(.bss) for .bss
    main.o(i.nnom_model_create) refers to nnom.o(i.check_model_version) for check_model_version
    main.o(i.nnom_model_create) refers to nnom.o(i.new_model) for new_model
    main.o(i.nnom_model_create) refers to nnom_input.o(i.input_s) for input_s
    main.o(i.nnom_model_create) refers to nnom_conv2d.o(i.conv2d_s) for conv2d_s
    main.o(i.nnom_model_create) refers to nnom_activation.o(i.act_relu) for act_relu
    main.o(i.nnom_model_create) refers to nnom_maxpool.o(i.maxpool_s) for maxpool_s
    main.o(i.nnom_model_create) refers to nnom_flatten.o(i.flatten_s) for flatten_s
    main.o(i.nnom_model_create) refers to nnom_dense.o(i.dense_s) for dense_s
    main.o(i.nnom_model_create) refers to nnom_softmax.o(i.softmax_s) for softmax_s
    main.o(i.nnom_model_create) refers to nnom_output.o(i.output_s) for output_s
    main.o(i.nnom_model_create) refers to nnom.o(i.model_compile) for model_compile
    main.o(i.nnom_model_create) refers to main.o(.bss) for .bss
    main.o(i.nnom_model_create) refers to main.o(.constdata) for .constdata
    main.o(.constdata) refers to main.o(.bss) for nnom_input_data
    main.o(.constdata) refers to main.o(.constdata) for tensor_input_1_dim
    main.o(.constdata) refers to main.o(.constdata) for tensor_input_1_dec
    main.o(.constdata) refers to main.o(.constdata) for tensor_input_1_offset
    main.o(.constdata) refers to main.o(.conststring) for .conststring
    main.o(.constdata) refers to main.o(.constdata) for tensor_input_1
    main.o(.constdata) refers to main.o(.constdata) for tensor_output0
    main.o(.constdata) refers to main.o(.constdata) for tensor_conv1d_kernel_0
    main.o(.constdata) refers to main.o(.constdata) for tensor_conv1d_bias_0
    main.o(.constdata) refers to main.o(.constdata) for conv1d_output_shift
    main.o(.constdata) refers to main.o(.constdata) for conv1d_bias_shift
    main.o(.constdata) refers to main.o(.constdata) for tensor_conv1d_1_kernel_0
    main.o(.constdata) refers to main.o(.constdata) for tensor_conv1d_1_bias_0
    main.o(.constdata) refers to main.o(.constdata) for conv1d_1_output_shift
    main.o(.constdata) refers to main.o(.constdata) for conv1d_1_bias_shift
    main.o(.constdata) refers to main.o(.constdata) for tensor_dense_kernel_0
    main.o(.constdata) refers to main.o(.constdata) for tensor_dense_bias_0
    main.o(.constdata) refers to main.o(.constdata) for dense_output_shift
    main.o(.constdata) refers to main.o(.constdata) for dense_bias_shift
    main.o(.constdata) refers to main.o(.constdata) for tensor_conv1d_kernel_0_data
    main.o(.constdata) refers to main.o(.constdata) for tensor_conv1d_kernel_0_dim
    main.o(.constdata) refers to main.o(.constdata) for tensor_conv1d_kernel_0_dec
    main.o(.constdata) refers to main.o(.constdata) for tensor_conv1d_kernel_0_offset
    main.o(.constdata) refers to main.o(.constdata) for tensor_conv1d_bias_0_data
    main.o(.constdata) refers to main.o(.constdata) for tensor_conv1d_bias_0_dim
    main.o(.constdata) refers to main.o(.constdata) for tensor_conv1d_bias_0_dec
    main.o(.constdata) refers to main.o(.constdata) for tensor_conv1d_bias_0_offset
    main.o(.constdata) refers to main.o(.constdata) for tensor_conv1d_1_kernel_0_data
    main.o(.constdata) refers to main.o(.constdata) for tensor_conv1d_1_kernel_0_dim
    main.o(.constdata) refers to main.o(.constdata) for tensor_conv1d_1_kernel_0_dec
    main.o(.constdata) refers to main.o(.constdata) for tensor_conv1d_1_kernel_0_offset
    main.o(.constdata) refers to main.o(.constdata) for tensor_conv1d_1_bias_0_data
    main.o(.constdata) refers to main.o(.constdata) for tensor_conv1d_1_bias_0_dim
    main.o(.constdata) refers to main.o(.constdata) for tensor_conv1d_1_bias_0_dec
    main.o(.constdata) refers to main.o(.constdata) for tensor_conv1d_1_bias_0_offset
    main.o(.constdata) refers to main.o(.constdata) for tensor_dense_kernel_0_data
    main.o(.constdata) refers to main.o(.constdata) for tensor_dense_kernel_0_dim
    main.o(.constdata) refers to main.o(.constdata) for tensor_dense_kernel_0_dec
    main.o(.constdata) refers to main.o(.constdata) for tensor_dense_kernel_0_offset
    main.o(.constdata) refers to main.o(.constdata) for tensor_dense_bias_0_data
    main.o(.constdata) refers to main.o(.constdata) for tensor_dense_bias_0_dim
    main.o(.constdata) refers to main.o(.constdata) for tensor_dense_bias_0_dec
    main.o(.constdata) refers to main.o(.constdata) for tensor_dense_bias_0_offset
    main.o(.constdata) refers to main.o(.bss) for nnom_output_data
    main.o(.constdata) refers to main.o(.constdata) for tensor_output0_dim
    main.o(.constdata) refers to main.o(.constdata) for tensor_output0_dec
    main.o(.constdata) refers to main.o(.constdata) for tensor_output0_offset
    nnom_local.o(i.local_add_q7) refers to nnom_local.o(i.__NNOM_SSAT) for __NNOM_SSAT
    nnom_local.o(i.local_conv_trans_HWC_q7_nonsquare) refers to nnom_local.o(i.alg_deconv2d_calculate_position) for alg_deconv2d_calculate_position
    nnom_local.o(i.local_conv_trans_HWC_q7_nonsquare) refers to nnom_local.o(i.__NNOM_SSAT) for __NNOM_SSAT
    nnom_local.o(i.local_convolve_CHW_q7_nonsquare) refers to nnom_local.o(i.__NNOM_SSAT) for __NNOM_SSAT
    nnom_local.o(i.local_convolve_HWC_q7_nonsquare) refers to nnom_local.o(i.__NNOM_SSAT) for __NNOM_SSAT
    nnom_local.o(i.local_cropping_CHW_q7) refers to memcpya.o(.text) for __aeabi_memcpy
    nnom_local.o(i.local_cropping_HWC_q7) refers to memcpya.o(.text) for __aeabi_memcpy
    nnom_local.o(i.local_depthwise_separable_conv_CHW_q7_nonsquare) refers to nnom_local.o(i.__NNOM_SSAT) for __NNOM_SSAT
    nnom_local.o(i.local_depthwise_separable_conv_HWC_q7_nonsquare) refers to nnom_local.o(i.__NNOM_SSAT) for __NNOM_SSAT
    nnom_local.o(i.local_dot_q7) refers to nnom_local.o(i.__NNOM_SSAT) for __NNOM_SSAT
    nnom_local.o(i.local_dot_q7_opt) refers to nnom_local.o(i.__NNOM_SSAT) for __NNOM_SSAT
    nnom_local.o(i.local_fully_connected_q7) refers to nnom_local.o(i.__NNOM_SSAT) for __NNOM_SSAT
    nnom_local.o(i.local_fully_connected_q7_opt) refers to nnom_local.o(i.__NNOM_SSAT) for __NNOM_SSAT
    nnom_local.o(i.local_hard_sigmoid_q7) refers to fflti.o(.text) for __aeabi_i2f
    nnom_local.o(i.local_hard_sigmoid_q7) refers to fmul.o(.text) for __aeabi_fmul
    nnom_local.o(i.local_hard_sigmoid_q7) refers to fadd.o(.text) for __aeabi_fsub
    nnom_local.o(i.local_hard_sigmoid_q7) refers to ffixi.o(.text) for __aeabi_f2iz
    nnom_local.o(i.local_mult_q7) refers to nnom_local.o(i.__NNOM_SSAT) for __NNOM_SSAT
    nnom_local.o(i.local_multiple_add_q7) refers to nnom_local.o(i.__NNOM_SSAT) for __NNOM_SSAT
    nnom_local.o(i.local_multiple_mult_q7) refers to nnom_local.o(i.__NNOM_SSAT) for __NNOM_SSAT
    nnom_local.o(i.local_multiple_sub_q7) refers to nnom_local.o(i.__NNOM_SSAT) for __NNOM_SSAT
    nnom_local.o(i.local_sigmoid_q7) refers to nnom_local.o(.constdata) for .constdata
    nnom_local.o(i.local_softmax_q7) refers to nnom_local.o(i.__NNOM_USAT) for __NNOM_USAT
    nnom_local.o(i.local_softmax_q7) refers to nnom_local.o(i.__NNOM_SSAT) for __NNOM_SSAT
    nnom_local.o(i.local_sub_q7) refers to nnom_local.o(i.__NNOM_SSAT) for __NNOM_SSAT
    nnom_local.o(i.local_tanh_q7) refers to nnom_local.o(.constdata) for .constdata
    nnom_local.o(i.local_up_sampling_q7_CHW) refers to memcpya.o(.text) for __aeabi_memcpy
    nnom_local.o(i.local_up_sampling_q7_HWC) refers to memcpya.o(.text) for __aeabi_memcpy
    nnom_local.o(i.local_zero_padding_CHW_q7) refers to memseta.o(.text) for __aeabi_memclr
    nnom_local.o(i.local_zero_padding_CHW_q7) refers to memcpya.o(.text) for __aeabi_memcpy
    nnom_local.o(i.local_zero_padding_HWC_q7) refers to memseta.o(.text) for __aeabi_memclr
    nnom_local.o(i.local_zero_padding_HWC_q7) refers to memcpya.o(.text) for __aeabi_memcpy
    nnom_local_q15.o(i.local_add_q15) refers to nnom_local_q15.o(i.__NNOM_SSAT) for __NNOM_SSAT
    nnom_local_q15.o(i.local_conv_trans_HWC_q15_nonsquare) refers to nnom_local_q15.o(i.alg_deconv2d_calculate_position) for alg_deconv2d_calculate_position
    nnom_local_q15.o(i.local_conv_trans_HWC_q15_nonsquare) refers to llsshr.o(.text) for __aeabi_lasr
    nnom_local_q15.o(i.local_conv_trans_HWC_q15_nonsquare) refers to nnom_local_q15.o(i.__NNOM_SSAT) for __NNOM_SSAT
    nnom_local_q15.o(i.local_convolve_CHW_q15_nonsquare) refers to llsshr.o(.text) for __aeabi_lasr
    nnom_local_q15.o(i.local_convolve_CHW_q15_nonsquare) refers to nnom_local_q15.o(i.__NNOM_SSAT) for __NNOM_SSAT
    nnom_local_q15.o(i.local_convolve_HWC_q15_nonsquare) refers to llsshr.o(.text) for __aeabi_lasr
    nnom_local_q15.o(i.local_convolve_HWC_q15_nonsquare) refers to nnom_local_q15.o(i.__NNOM_SSAT) for __NNOM_SSAT
    nnom_local_q15.o(i.local_cropping_CHW_q15) refers to memcpya.o(.text) for __aeabi_memcpy
    nnom_local_q15.o(i.local_cropping_HWC_q15) refers to memcpya.o(.text) for __aeabi_memcpy
    nnom_local_q15.o(i.local_depthwise_separable_conv_CHW_q15_nonsquare) refers to llsshr.o(.text) for __aeabi_lasr
    nnom_local_q15.o(i.local_depthwise_separable_conv_CHW_q15_nonsquare) refers to nnom_local_q15.o(i.__NNOM_SSAT) for __NNOM_SSAT
    nnom_local_q15.o(i.local_depthwise_separable_conv_HWC_q15_nonsquare) refers to llsshr.o(.text) for __aeabi_lasr
    nnom_local_q15.o(i.local_depthwise_separable_conv_HWC_q15_nonsquare) refers to nnom_local_q15.o(i.__NNOM_SSAT) for __NNOM_SSAT
    nnom_local_q15.o(i.local_dot_q15) refers to llsshr.o(.text) for __aeabi_lasr
    nnom_local_q15.o(i.local_dot_q15) refers to nnom_local_q15.o(i.__NNOM_SSAT) for __NNOM_SSAT
    nnom_local_q15.o(i.local_dot_q15_opt) refers to llsshr.o(.text) for __aeabi_lasr
    nnom_local_q15.o(i.local_dot_q15_opt) refers to nnom_local_q15.o(i.__NNOM_SSAT) for __NNOM_SSAT
    nnom_local_q15.o(i.local_fully_connected_mat_q7_vec_q15) refers to llsshr.o(.text) for __aeabi_lasr
    nnom_local_q15.o(i.local_fully_connected_mat_q7_vec_q15) refers to nnom_local_q15.o(i.__NNOM_SSAT) for __NNOM_SSAT
    nnom_local_q15.o(i.local_fully_connected_mat_q7_vec_q15_opt) refers to llsshr.o(.text) for __aeabi_lasr
    nnom_local_q15.o(i.local_fully_connected_mat_q7_vec_q15_opt) refers to nnom_local_q15.o(i.__NNOM_SSAT) for __NNOM_SSAT
    nnom_local_q15.o(i.local_hard_sigmoid_q15) refers to fflti.o(.text) for __aeabi_i2f
    nnom_local_q15.o(i.local_hard_sigmoid_q15) refers to fmul.o(.text) for __aeabi_fmul
    nnom_local_q15.o(i.local_hard_sigmoid_q15) refers to fadd.o(.text) for __aeabi_fsub
    nnom_local_q15.o(i.local_hard_sigmoid_q15) refers to ffixi.o(.text) for __aeabi_f2iz
    nnom_local_q15.o(i.local_mult_q15) refers to nnom_local_q15.o(i.__NNOM_SSAT) for __NNOM_SSAT
    nnom_local_q15.o(i.local_multiple_add_q15) refers to nnom_local_q15.o(i.__NNOM_SSAT) for __NNOM_SSAT
    nnom_local_q15.o(i.local_multiple_mult_q15) refers to llsshr.o(.text) for __aeabi_lasr
    nnom_local_q15.o(i.local_multiple_mult_q15) refers to nnom_local_q15.o(i.__NNOM_SSAT) for __NNOM_SSAT
    nnom_local_q15.o(i.local_multiple_sub_q15) refers to nnom_local_q15.o(i.__NNOM_SSAT) for __NNOM_SSAT
    nnom_local_q15.o(i.local_sigmoid_q15) refers to nnom_local_q15.o(i.local_activation_q15) for local_activation_q15
    nnom_local_q15.o(i.local_sigmoid_q15) refers to nnom_local_q15.o(.constdata) for .constdata
    nnom_local_q15.o(i.local_softmax_q15) refers to nnom_local_q15.o(i.__NNOM_USAT) for __NNOM_USAT
    nnom_local_q15.o(i.local_softmax_q15) refers to ldiv.o(.text) for __aeabi_ldivmod
    nnom_local_q15.o(i.local_softmax_q15) refers to nnom_local_q15.o(i.__NNOM_SSAT) for __NNOM_SSAT
    nnom_local_q15.o(i.local_sub_q15) refers to nnom_local_q15.o(i.__NNOM_SSAT) for __NNOM_SSAT
    nnom_local_q15.o(i.local_sumpool_q15_CHW) refers to nnom_local_q15.o(i.__NNOM_SSAT) for __NNOM_SSAT
    nnom_local_q15.o(i.local_sumpool_q15_HWC) refers to nnom_local_q15.o(i.__NNOM_SSAT) for __NNOM_SSAT
    nnom_local_q15.o(i.local_tanh_q15) refers to nnom_local_q15.o(i.local_activation_q15) for local_activation_q15
    nnom_local_q15.o(i.local_tanh_q15) refers to nnom_local_q15.o(.constdata) for .constdata
    nnom_local_q15.o(i.local_up_sampling_q15_CHW) refers to memcpya.o(.text) for __aeabi_memcpy
    nnom_local_q15.o(i.local_up_sampling_q15_HWC) refers to memcpya.o(.text) for __aeabi_memcpy
    nnom_local_q15.o(i.local_zero_padding_CHW_q15) refers to memseta.o(.text) for __aeabi_memclr
    nnom_local_q15.o(i.local_zero_padding_CHW_q15) refers to memcpya.o(.text) for __aeabi_memcpy
    nnom_local_q15.o(i.local_zero_padding_HWC_q15) refers to memseta.o(.text) for __aeabi_memclr
    nnom_local_q15.o(i.local_zero_padding_HWC_q15) refers to memcpya.o(.text) for __aeabi_memcpy
    nnom.o(i.allocate_block) refers to printfa.o(i.__0printf) for __2printf
    nnom.o(i.allocate_block) refers to nnom.o(.conststring) for .conststring
    nnom.o(i.allocate_hook) refers to nnom.o(i.nnom_mem) for nnom_mem
    nnom.o(i.allocate_io) refers to nnom.o(i.nnom_mem) for nnom_mem
    nnom.o(i.check_model_version) refers to printfa.o(i.__0printf) for __2printf
    nnom.o(i.compile_layers) refers to nnom.o(i.allocate_block) for allocate_block
    nnom.o(i.compile_layers) refers to nnom_tensor.o(i.tensor_size) for tensor_size
    nnom.o(i.compile_layers) refers to nnom.o(i.nnom_alignto) for nnom_alignto
    nnom.o(i.compile_layers) refers to nnom.o(i.layer_shortcut_add) for layer_shortcut_add
    nnom.o(i.compile_layers) refers to nnom.o(i.print_layer_info) for print_layer_info
    nnom.o(i.compile_layers) refers to nnom.o(i.print_memory_block_info) for print_memory_block_info
    nnom.o(i.compile_layers) refers to nnom.o(i.release_input_mem) for release_input_mem
    nnom.o(i.compile_layers) refers to nnom.o(i.release_comp_mem) for release_comp_mem
    nnom.o(i.compile_layers) refers to nnom.o(i.nnom_hook_length) for nnom_hook_length
    nnom.o(i.io_list_delete) refers to nnom.o(i.nnom_free) for nnom_free
    nnom.o(i.io_mem_size) refers to nnom_tensor.o(i.tensor_size) for tensor_size
    nnom.o(i.io_tensor_delete) refers to nnom.o(i.nnom_free) for nnom_free
    nnom.o(i.layer_delete) refers to nnom.o(i.io_tensor_delete) for io_tensor_delete
    nnom.o(i.layer_delete) refers to nnom.o(i.io_list_delete) for io_list_delete
    nnom.o(i.layer_delete) refers to nnom.o(i.nnom_free) for nnom_free
    nnom.o(i.layer_run) refers to printfa.o(i.__0printf) for __2printf
    nnom.o(i.mem_analysis_result) refers to printfa.o(i.__0printf) for __2printf
    nnom.o(i.model_add) refers to nnom.o(i.find_last) for find_last
    nnom.o(i.model_add) refers to printfa.o(i.__0printf) for __2printf
    nnom.o(i.model_add) refers to nnom.o(.conststring) for .conststring
    nnom.o(i.model_compile) refers to printfa.o(i.__0printf) for __2printf
    nnom.o(i.model_compile) refers to nnom.o(i.find_last) for find_last
    nnom.o(i.model_compile) refers to nnom.o(i.compile_layers) for compile_layers
    nnom.o(i.model_compile) refers to nnom.o(i.mem_analysis_result) for mem_analysis_result
    nnom.o(i.model_compile) refers to nnom.o(i.nnom_mem) for nnom_mem
    nnom.o(i.model_compile) refers to nnom.o(i.block_mem_set) for block_mem_set
    nnom.o(i.model_compile) refers to nnom.o(i.tensor_mem_set) for tensor_mem_set
    nnom.o(i.model_compile) refers to nnom.o(i.set_tailed_activation) for set_tailed_activation
    nnom.o(i.model_compile) refers to nnom.o(i.model_set_ops) for model_set_ops
    nnom.o(i.model_compile) refers to nnom.o(.conststring) for .conststring
    nnom.o(i.model_compile) refers to nnom.o(.data) for .data
    nnom.o(i.model_compile) refers to nnom.o(.constdata) for .constdata
    nnom.o(i.model_delete) refers to nnom.o(i.layer_delete) for layer_delete
    nnom.o(i.model_delete) refers to nnom.o(i.nnom_free) for nnom_free
    nnom.o(i.model_delete) refers to memseta.o(.text) for __aeabi_memclr4
    nnom.o(i.model_delete) refers to nnom.o(.data) for .data
    nnom.o(i.model_hook) refers to nnom.o(i.allocate_hook) for allocate_hook
    nnom.o(i.model_hook) refers to nnom.o(i.allocate_io) for allocate_io
    nnom.o(i.model_merge) refers to nnom.o(i.model_mergex) for model_mergex
    nnom.o(i.model_mergex) refers to nnom.o(i.model_hook) for model_hook
    nnom.o(i.model_run) refers to nnom.o(i.model_run_to) for model_run_to
    nnom.o(i.model_run_to) refers to printfa.o(i.__0printf) for __2printf
    nnom.o(i.model_run_to) refers to nnom.o(i.layer_run) for layer_run
    nnom.o(i.model_run_to) refers to nnom.o(.constdata) for .constdata
    nnom.o(i.new_model) refers to memseta.o(.text) for __aeabi_memclr4
    nnom.o(i.new_model) refers to nnom.o(i.nnom_mem) for nnom_mem
    nnom.o(i.new_model) refers to nnom.o(i.model_add) for model_add
    nnom.o(i.new_model) refers to nnom.o(i.model_hook) for model_hook
    nnom.o(i.new_model) refers to nnom.o(i.model_merge) for model_merge
    nnom.o(i.new_model) refers to nnom.o(i.model_mergex) for model_mergex
    nnom.o(i.new_model) refers to nnom.o(i.model_active) for model_active
    nnom.o(i.nnom_malloc) refers to nnom.o(i.nnom_alignto) for nnom_alignto
    nnom.o(i.nnom_malloc) refers to printfa.o(i.__0printf) for __2printf
    nnom.o(i.nnom_malloc) refers to nnom.o(.data) for .data
    nnom.o(i.nnom_malloc) refers to nnom.o(.conststring) for .conststring
    nnom.o(i.nnom_mem) refers to nnom.o(i.nnom_alignto) for nnom_alignto
    nnom.o(i.nnom_mem) refers to nnom.o(i.nnom_malloc) for nnom_malloc
    nnom.o(i.nnom_mem) refers to memseta.o(.text) for __aeabi_memclr
    nnom.o(i.nnom_mem) refers to nnom.o(.data) for .data
    nnom.o(i.nnom_mem_stat) refers to nnom.o(.data) for .data
    nnom.o(i.nnom_set_static_buf) refers to nnom.o(.data) for .data
    nnom.o(i.print_layer_info) refers to nnom.o(i.io_mem_size) for io_mem_size
    nnom.o(i.print_layer_info) refers to printfa.o(i.__0printf) for __2printf
    nnom.o(i.print_layer_info) refers to nnom.o(.constdata) for .constdata
    nnom.o(i.print_memory_block_info) refers to printfa.o(i.__0printf) for __2printf
    nnom.o(i.release_comp_mem) refers to nnom.o(i.release_block) for release_block
    nnom.o(i.release_input_mem) refers to nnom.o(i.release_block) for release_block
    nnom.o(i.sequencial_compile) refers to nnom.o(i.find_last) for find_last
    nnom.o(i.sequencial_compile) refers to nnom.o(i.model_compile) for model_compile
    nnom.o(i.set_tailed_activation) refers to printfa.o(i.__0printf) for __2printf
    nnom_layers.o(i.dilation) refers to nnom_layers.o(i.shape) for shape
    nnom_layers.o(i.io_add_aux) refers to nnom.o(i.nnom_mem) for nnom_mem
    nnom_layers.o(i.io_add_aux) refers to nnom_layers.o(i.io_init) for io_init
    nnom_layers.o(i.kernel) refers to nnom_layers.o(i.shape) for shape
    nnom_layers.o(i.stride) refers to nnom_layers.o(i.shape) for shape
    nnom_tensor.o(i.delete_tensor) refers to nnom.o(i.nnom_free) for nnom_free
    nnom_tensor.o(i.new_tensor) refers to printfa.o(i.__0printf) for __2printf
    nnom_tensor.o(i.new_tensor) refers to nnom.o(i.nnom_alignto) for nnom_alignto
    nnom_tensor.o(i.new_tensor) refers to nnom.o(i.nnom_mem) for nnom_mem
    nnom_tensor.o(i.tensor_cpy_attr) refers to memcpya.o(.text) for __aeabi_memcpy4
    nnom_tensor.o(i.tensor_cpy_attr) refers to nnom_tensor.o(i.tensor_get_num_channel) for tensor_get_num_channel
    nnom_tensor.o(i.tensor_set_attr) refers to memcpya.o(.text) for __aeabi_memcpy
    nnom_tensor.o(i.tensor_set_attr) refers to nnom_tensor.o(i.tensor_get_num_channel) for tensor_get_num_channel
    nnom_tensor.o(i.tensor_set_attr_v) refers to memcpya.o(.text) for __aeabi_memcpy
    nnom_tensor.o(i.tensor_size_byte) refers to nnom_tensor.o(i.tensor_size) for tensor_size
    nnom_utils.o(i._predict_create_instance) refers to nnom.o(i.nnom_malloc) for nnom_malloc
    nnom_utils.o(i._predict_create_instance) refers to memseta.o(.text) for __aeabi_memclr4
    nnom_utils.o(i._predict_create_instance) refers to nnom.o(i.nnom_free) for nnom_free
    nnom_utils.o(i._predict_delete_instance) refers to nnom.o(i.nnom_free) for nnom_free
    nnom_utils.o(i.layer_stat) refers to printfa.o(i.__0printf) for __2printf
    nnom_utils.o(i.layer_stat) refers to nnom.o(.constdata) for default_layer_names
    nnom_utils.o(i.model_io_format) refers to printfa.o(i.__0printf) for __2printf
    nnom_utils.o(i.model_io_format) refers to nnom.o(.constdata) for default_layer_names
    nnom_utils.o(i.model_stat) refers to printfa.o(i.__0printf) for __2printf
    nnom_utils.o(i.model_stat) refers to nnom_utils.o(i.layer_stat) for layer_stat
    nnom_utils.o(i.model_stat) refers to nnom.o(i.nnom_mem_stat) for nnom_mem_stat
    nnom_utils.o(i.nnom_predict) refers to nnom.o(i.model_run) for model_run
    nnom_utils.o(i.nnom_predict) refers to nnom_tensor.o(i.tensor_size) for tensor_size
    nnom_utils.o(i.nnom_predict) refers to fflti.o(.text) for __aeabi_i2f
    nnom_utils.o(i.nnom_predict) refers to fdiv.o(.text) for __aeabi_fdiv
    nnom_utils.o(i.prediction_create) refers to nnom_utils.o(i._predict_create_instance) for _predict_create_instance
    nnom_utils.o(i.prediction_create) refers to nnom_utils.o(i._predict_delete_instance) for _predict_delete_instance
    nnom_utils.o(i.prediction_delete) refers to nnom_utils.o(i._predict_delete_instance) for _predict_delete_instance
    nnom_utils.o(i.prediction_matrix) refers to printfa.o(i.__0printf) for __2printf
    nnom_utils.o(i.prediction_run) refers to nnom.o(i.model_run) for model_run
    nnom_utils.o(i.prediction_run) refers to fflti.o(.text) for __aeabi_i2f
    nnom_utils.o(i.prediction_run) refers to fdiv.o(.text) for __aeabi_fdiv
    nnom_utils.o(i.prediction_summary) refers to printfa.o(i.__0printf) for __2printf
    nnom_utils.o(i.prediction_summary) refers to uldiv.o(.text) for __aeabi_uldivmod
    nnom_utils.o(i.prediction_summary) refers to nnom_utils.o(i.prediction_top_k) for prediction_top_k
    nnom_utils.o(i.prediction_summary) refers to nnom_utils.o(i.prediction_matrix) for prediction_matrix
    nnom_utils.o(i.prediction_top_k) refers to printfa.o(i.__0printf) for __2printf
    nnom_activation.o(i.Activation) refers to nnom.o(i.nnom_mem) for nnom_mem
    nnom_activation.o(i.Activation) refers to nnom_layers.o(i.io_init) for io_init
    nnom_activation.o(i.Activation) refers to nnom_activation.o(i.activation_run) for activation_run
    nnom_activation.o(i.Activation) refers to nnom_baselayer.o(i.default_build) for default_build
    nnom_activation.o(i.Activation) refers to nnom_activation.o(i.activation_free) for activation_free
    nnom_activation.o(i.AdvReLU) refers to nnom_activation.o(i.act_adv_relu) for act_adv_relu
    nnom_activation.o(i.AdvReLU) refers to nnom_activation.o(i.Activation) for Activation
    nnom_activation.o(i.LeakyReLU) refers to nnom_activation.o(i.act_leaky_relu) for act_leaky_relu
    nnom_activation.o(i.LeakyReLU) refers to nnom_activation.o(i.Activation) for Activation
    nnom_activation.o(i.ReLU) refers to nnom_activation.o(i.act_relu) for act_relu
    nnom_activation.o(i.ReLU) refers to nnom_activation.o(i.Activation) for Activation
    nnom_activation.o(i.Sigmoid) refers to nnom_activation.o(i.act_sigmoid) for act_sigmoid
    nnom_activation.o(i.Sigmoid) refers to nnom_activation.o(i.Activation) for Activation
    nnom_activation.o(i.TanH) refers to nnom_activation.o(i.act_tanh) for act_tanh
    nnom_activation.o(i.TanH) refers to nnom_activation.o(i.Activation) for Activation
    nnom_activation.o(i.act_adv_relu) refers to nnom.o(i.nnom_mem) for nnom_mem
    nnom_activation.o(i.act_adv_relu) refers to fscalb.o(.text) for __ARM_scalbnf
    nnom_activation.o(i.act_adv_relu) refers to ffixi.o(.text) for __aeabi_f2iz
    nnom_activation.o(i.act_adv_relu) refers to nnom_activation.o(i.adv_relu_run) for adv_relu_run
    nnom_activation.o(i.act_delete) refers to nnom.o(i.nnom_free) for nnom_free
    nnom_activation.o(i.act_hard_sigmoid) refers to nnom.o(i.nnom_mem) for nnom_mem
    nnom_activation.o(i.act_hard_sigmoid) refers to nnom_activation.o(i.hard_sigmoid_run) for hard_sigmoid_run
    nnom_activation.o(i.act_hard_tanh) refers to nnom.o(i.nnom_mem) for nnom_mem
    nnom_activation.o(i.act_hard_tanh) refers to nnom_activation.o(i.hard_tanh_run) for hard_tanh_run
    nnom_activation.o(i.act_leaky_relu) refers to nnom.o(i.nnom_mem) for nnom_mem
    nnom_activation.o(i.act_leaky_relu) refers to fscalb.o(.text) for __ARM_scalbnf
    nnom_activation.o(i.act_leaky_relu) refers to ffixi.o(.text) for __aeabi_f2iz
    nnom_activation.o(i.act_leaky_relu) refers to nnom_activation.o(i.leaky_relu_run) for leaky_relu_run
    nnom_activation.o(i.act_relu) refers to nnom.o(i.nnom_mem) for nnom_mem
    nnom_activation.o(i.act_relu) refers to nnom_activation.o(i.relu_run) for relu_run
    nnom_activation.o(i.act_sigmoid) refers to nnom.o(i.nnom_mem) for nnom_mem
    nnom_activation.o(i.act_sigmoid) refers to nnom_activation.o(i.sigmoid_run) for sigmoid_run
    nnom_activation.o(i.act_tanh) refers to nnom.o(i.nnom_mem) for nnom_mem
    nnom_activation.o(i.act_tanh) refers to nnom_activation.o(i.tanh_run) for tanh_run
    nnom_activation.o(i.activation_free) refers to nnom_activation.o(i.act_delete) for act_delete
    nnom_activation.o(i.activation_run) refers to nnom_activation.o(i.act_tensor_run) for act_tensor_run
    nnom_activation.o(i.adv_relu_run) refers to fflti.o(.text) for __aeabi_i2f
    nnom_activation.o(i.adv_relu_run) refers to fmul.o(.text) for __aeabi_fmul
    nnom_activation.o(i.adv_relu_run) refers to ffixi.o(.text) for __aeabi_f2iz
    nnom_activation.o(i.adv_relu_run) refers to cfcmple.o(.text) for __aeabi_cfcmple
    nnom_activation.o(i.adv_relu_run) refers to nnom_tensor.o(i.tensor_size) for tensor_size
    nnom_activation.o(i.adv_relu_run) refers to nnom_local.o(i.local_adv_relu_q7) for local_adv_relu_q7
    nnom_activation.o(i.adv_relu_run) refers to nnom_local_q15.o(i.local_adv_relu_q15) for local_adv_relu_q15
    nnom_activation.o(i.hard_sigmoid_run) refers to nnom_tensor.o(i.tensor_size) for tensor_size
    nnom_activation.o(i.hard_sigmoid_run) refers to nnom_local.o(i.local_hard_sigmoid_q7) for local_hard_sigmoid_q7
    nnom_activation.o(i.hard_sigmoid_run) refers to nnom_local_q15.o(i.local_hard_sigmoid_q15) for local_hard_sigmoid_q15
    nnom_activation.o(i.hard_tanh_run) refers to nnom_tensor.o(i.tensor_size) for tensor_size
    nnom_activation.o(i.hard_tanh_run) refers to nnom_local.o(i.local_hard_tanh_q7) for local_hard_tanh_q7
    nnom_activation.o(i.hard_tanh_run) refers to nnom_local_q15.o(i.local_hard_tanh_q15) for local_hard_tanh_q15
    nnom_activation.o(i.leaky_relu_run) refers to nnom_tensor.o(i.tensor_size) for tensor_size
    nnom_activation.o(i.leaky_relu_run) refers to nnom_local.o(i.local_leaky_relu_q7) for local_leaky_relu_q7
    nnom_activation.o(i.leaky_relu_run) refers to nnom_local_q15.o(i.local_leaky_relu_q15) for local_leaky_relu_q15
    nnom_activation.o(i.relu_run) refers to nnom_tensor.o(i.tensor_size) for tensor_size
    nnom_activation.o(i.relu_run) refers to nnom_local.o(i.local_relu_q7) for local_relu_q7
    nnom_activation.o(i.relu_run) refers to nnom_local_q15.o(i.local_relu_q15) for local_relu_q15
    nnom_activation.o(i.sigmoid_run) refers to nnom_tensor.o(i.tensor_size) for tensor_size
    nnom_activation.o(i.sigmoid_run) refers to nnom_local.o(i.local_sigmoid_q7) for local_sigmoid_q7
    nnom_activation.o(i.sigmoid_run) refers to nnom_local_q15.o(i.local_sigmoid_q15) for local_sigmoid_q15
    nnom_activation.o(i.tanh_run) refers to nnom_tensor.o(i.tensor_size) for tensor_size
    nnom_activation.o(i.tanh_run) refers to nnom_local.o(i.local_tanh_q7) for local_tanh_q7
    nnom_activation.o(i.tanh_run) refers to nnom_local_q15.o(i.local_tanh_q15) for local_tanh_q15
    nnom_avgpool.o(i.AvgPool) refers to nnom_maxpool.o(i.MaxPool) for MaxPool
    nnom_avgpool.o(i.AvgPool) refers to nnom_avgpool.o(i.avgpool_run) for avgpool_run
    nnom_avgpool.o(i.AvgPool) refers to nnom_avgpool.o(i.avgpool_build) for avgpool_build
    nnom_avgpool.o(i.avgpool_build) refers to nnom_maxpool.o(i.maxpool_build) for maxpool_build
    nnom_avgpool.o(i.avgpool_run) refers to nnom_local.o(i.local_avepool_q7_HWC) for local_avepool_q7_HWC
    nnom_avgpool.o(i.avgpool_run) refers to nnom_local_q15.o(i.local_avepool_q15_HWC) for local_avepool_q15_HWC
    nnom_avgpool.o(i.avgpool_s) refers to nnom_layers.o(i.stride) for stride
    nnom_avgpool.o(i.avgpool_s) refers to nnom_layers.o(i.kernel) for kernel
    nnom_avgpool.o(i.avgpool_s) refers to nnom_avgpool.o(i.AvgPool) for AvgPool
    nnom_baselayer.o(i.BaseLayer) refers to nnom.o(i.nnom_mem) for nnom_mem
    nnom_baselayer.o(i.BaseLayer) refers to nnom_layers.o(i.io_init) for io_init
    nnom_baselayer.o(i.BaseLayer) refers to nnom_baselayer.o(i.default_run) for default_run
    nnom_baselayer.o(i.BaseLayer) refers to nnom_baselayer.o(i.default_build) for default_build
    nnom_baselayer.o(i.baselayer_s) refers to nnom_baselayer.o(i.BaseLayer) for BaseLayer
    nnom_baselayer.o(i.default_build) refers to nnom_tensor.o(i.tensor_get_num_channel) for tensor_get_num_channel
    nnom_baselayer.o(i.default_build) refers to nnom_tensor.o(i.new_tensor) for new_tensor
    nnom_baselayer.o(i.default_build) refers to nnom_tensor.o(i.tensor_cpy_attr) for tensor_cpy_attr
    nnom_baselayer.o(i.default_build) refers to nnom_activation.o(i.act_get_dec_bit) for act_get_dec_bit
    nnom_baselayer.o(i.default_run) refers to nnom_tensor.o(i.tensor_size_byte) for tensor_size_byte
    nnom_baselayer.o(i.default_run) refers to memcpya.o(.text) for __aeabi_memcpy
    nnom_concat.o(i.Concat) refers to nnom.o(i.nnom_mem) for nnom_mem
    nnom_concat.o(i.Concat) refers to nnom_layers.o(i.io_init) for io_init
    nnom_concat.o(i.Concat) refers to nnom_concat.o(i.concat_run) for concat_run
    nnom_concat.o(i.Concat) refers to nnom_concat.o(i.concat_build) for concat_build
    nnom_concat.o(i.concat_build) refers to nnom_tensor.o(i.tensor_get_num_channel) for tensor_get_num_channel
    nnom_concat.o(i.concat_build) refers to nnom_tensor.o(i.new_tensor) for new_tensor
    nnom_concat.o(i.concat_build) refers to nnom_tensor.o(i.tensor_cpy_attr) for tensor_cpy_attr
    nnom_concat.o(i.concat_run) refers to memcpya.o(.text) for __aeabi_memcpy
    nnom_concat.o(i.concat_s) refers to nnom_concat.o(i.Concat) for Concat
    nnom_conv2d.o(i.Conv2D) refers to nnom.o(i.nnom_mem) for nnom_mem
    nnom_conv2d.o(i.Conv2D) refers to nnom_layers.o(i.io_init) for io_init
    nnom_conv2d.o(i.Conv2D) refers to nnom_tensor.o(i.new_tensor) for new_tensor
    nnom_conv2d.o(i.Conv2D) refers to memcpya.o(.text) for __aeabi_memcpy
    nnom_conv2d.o(i.Conv2D) refers to nnom_conv2d.o(i.conv2d_run) for conv2d_run
    nnom_conv2d.o(i.Conv2D) refers to nnom_conv2d.o(i.conv2d_build) for conv2d_build
    nnom_conv2d.o(i.conv2d_build) refers to nnom_tensor.o(i.new_tensor) for new_tensor
    nnom_conv2d.o(i.conv2d_build) refers to nnom_tensor.o(i.tensor_cpy_attr) for tensor_cpy_attr
    nnom_conv2d.o(i.conv2d_build) refers to nnom_activation.o(i.act_get_dec_bit) for act_get_dec_bit
    nnom_conv2d.o(i.conv2d_build) refers to nnom_conv2d.o(i.conv_output_length) for conv_output_length
    nnom_conv2d.o(i.conv2d_build) refers to nnom_tensor.o(i.tensor_size) for tensor_size
    nnom_conv2d.o(i.conv2d_free) refers to nnom_tensor.o(i.delete_tensor) for delete_tensor
    nnom_conv2d.o(i.conv2d_run) refers to nnom_local.o(i.local_convolve_HWC_q7_nonsquare) for local_convolve_HWC_q7_nonsquare
    nnom_conv2d.o(i.conv2d_run) refers to nnom_local_q15.o(i.local_convolve_HWC_q15_nonsquare) for local_convolve_HWC_q15_nonsquare
    nnom_conv2d.o(i.conv2d_s) refers to nnom.o(i.nnom_mem) for nnom_mem
    nnom_conv2d.o(i.conv2d_s) refers to nnom_layers.o(i.io_init) for io_init
    nnom_conv2d.o(i.conv2d_s) refers to nnom_layers.o(i.kernel) for kernel
    nnom_conv2d.o(i.conv2d_s) refers to nnom_layers.o(i.stride) for stride
    nnom_conv2d.o(i.conv2d_s) refers to nnom_layers.o(i.dilation) for dilation
    nnom_conv2d.o(i.conv2d_s) refers to nnom_conv2d.o(i.conv2d_run) for conv2d_run
    nnom_conv2d.o(i.conv2d_s) refers to nnom_conv2d.o(i.conv2d_build) for conv2d_build
    nnom_conv2d.o(i.conv2d_s) refers to nnom_conv2d.o(i.conv2d_free) for conv2d_free
    nnom_conv2d_trans.o(i.Conv2DTrans) refers to nnom_conv2d.o(i.Conv2D) for Conv2D
    nnom_conv2d_trans.o(i.Conv2DTrans) refers to nnom_conv2d_trans.o(i.conv2d_trans_run) for conv2d_trans_run
    nnom_conv2d_trans.o(i.Conv2DTrans) refers to nnom_conv2d_trans.o(i.conv2d_trans_build) for conv2d_trans_build
    nnom_conv2d_trans.o(i.conv2d_trans_build) refers to nnom_tensor.o(i.new_tensor) for new_tensor
    nnom_conv2d_trans.o(i.conv2d_trans_build) refers to nnom_tensor.o(i.tensor_cpy_attr) for tensor_cpy_attr
    nnom_conv2d_trans.o(i.conv2d_trans_build) refers to nnom_activation.o(i.act_get_dec_bit) for act_get_dec_bit
    nnom_conv2d_trans.o(i.conv2d_trans_build) refers to nnom_conv2d_trans.o(i.conv_trans_output_length) for conv_trans_output_length
    nnom_conv2d_trans.o(i.conv2d_trans_build) refers to nnom_tensor.o(i.tensor_size) for tensor_size
    nnom_conv2d_trans.o(i.conv2d_trans_run) refers to nnom_local.o(i.local_conv_trans_HWC_q7_nonsquare) for local_conv_trans_HWC_q7_nonsquare
    nnom_conv2d_trans.o(i.conv2d_trans_s) refers to nnom_conv2d.o(i.conv2d_s) for conv2d_s
    nnom_conv2d_trans.o(i.conv2d_trans_s) refers to nnom_conv2d_trans.o(i.conv2d_trans_run) for conv2d_trans_run
    nnom_conv2d_trans.o(i.conv2d_trans_s) refers to nnom_conv2d_trans.o(i.conv2d_trans_build) for conv2d_trans_build
    nnom_cropping.o(i.Cropping) refers to nnom_zero_padding.o(i.ZeroPadding) for ZeroPadding
    nnom_cropping.o(i.Cropping) refers to nnom_cropping.o(i.cropping_run) for cropping_run
    nnom_cropping.o(i.Cropping) refers to nnom_cropping.o(i.cropping_build) for cropping_build
    nnom_cropping.o(i.cropping_build) refers to nnom_tensor.o(i.tensor_get_num_channel) for tensor_get_num_channel
    nnom_cropping.o(i.cropping_build) refers to nnom_tensor.o(i.new_tensor) for new_tensor
    nnom_cropping.o(i.cropping_build) refers to nnom_tensor.o(i.tensor_cpy_attr) for tensor_cpy_attr
    nnom_cropping.o(i.cropping_run) refers to nnom_local.o(i.local_cropping_HWC_q7) for local_cropping_HWC_q7
    nnom_cropping.o(i.cropping_s) refers to nnom_cropping.o(i.Cropping) for Cropping
    nnom_dense.o(i.Dense) refers to nnom.o(i.nnom_mem) for nnom_mem
    nnom_dense.o(i.Dense) refers to nnom_layers.o(i.io_init) for io_init
    nnom_dense.o(i.Dense) refers to nnom_tensor.o(i.new_tensor) for new_tensor
    nnom_dense.o(i.Dense) refers to memcpya.o(.text) for __aeabi_memcpy
    nnom_dense.o(i.Dense) refers to nnom_dense.o(i.dense_run) for dense_run
    nnom_dense.o(i.Dense) refers to nnom_dense.o(i.dense_build) for dense_build
    nnom_dense.o(i.dense_build) refers to nnom_tensor.o(i.tensor_get_num_channel) for tensor_get_num_channel
    nnom_dense.o(i.dense_build) refers to nnom_tensor.o(i.new_tensor) for new_tensor
    nnom_dense.o(i.dense_build) refers to nnom_tensor.o(i.tensor_set_attr) for tensor_set_attr
    nnom_dense.o(i.dense_build) refers to nnom_activation.o(i.act_get_dec_bit) for act_get_dec_bit
    nnom_dense.o(i.dense_build) refers to nnom_tensor.o(i.tensor_size) for tensor_size
    nnom_dense.o(i.dense_build) refers to nnom_dense.o(.constdata) for .constdata
    nnom_dense.o(i.dense_free) refers to nnom_tensor.o(i.delete_tensor) for delete_tensor
    nnom_dense.o(i.dense_run) refers to nnom_tensor.o(i.tensor_size) for tensor_size
    nnom_dense.o(i.dense_run) refers to nnom_local.o(i.local_fully_connected_q7_opt) for local_fully_connected_q7_opt
    nnom_dense.o(i.dense_s) refers to nnom.o(i.nnom_mem) for nnom_mem
    nnom_dense.o(i.dense_s) refers to nnom_layers.o(i.io_init) for io_init
    nnom_dense.o(i.dense_s) refers to nnom_tensor.o(i.tensor_get_num_channel) for tensor_get_num_channel
    nnom_dense.o(i.dense_s) refers to nnom_dense.o(i.dense_run) for dense_run
    nnom_dense.o(i.dense_s) refers to nnom_dense.o(i.dense_build) for dense_build
    nnom_dense.o(i.dense_s) refers to nnom_dense.o(i.dense_free) for dense_free
    nnom_dw_conv2d.o(i.DW_Conv2D) refers to nnom_conv2d.o(i.Conv2D) for Conv2D
    nnom_dw_conv2d.o(i.DW_Conv2D) refers to nnom_dw_conv2d.o(i.dw_conv2d_run) for dw_conv2d_run
    nnom_dw_conv2d.o(i.DW_Conv2D) refers to nnom_dw_conv2d.o(i.dw_conv2d_build) for dw_conv2d_build
    nnom_dw_conv2d.o(i.dw_conv2d_build) refers to nnom_tensor.o(i.tensor_get_num_channel) for tensor_get_num_channel
    nnom_dw_conv2d.o(i.dw_conv2d_build) refers to nnom_tensor.o(i.new_tensor) for new_tensor
    nnom_dw_conv2d.o(i.dw_conv2d_build) refers to nnom_tensor.o(i.tensor_cpy_attr) for tensor_cpy_attr
    nnom_dw_conv2d.o(i.dw_conv2d_build) refers to nnom_activation.o(i.act_get_dec_bit) for act_get_dec_bit
    nnom_dw_conv2d.o(i.dw_conv2d_build) refers to nnom_conv2d.o(i.conv_output_length) for conv_output_length
    nnom_dw_conv2d.o(i.dw_conv2d_build) refers to nnom_tensor.o(i.tensor_size) for tensor_size
    nnom_dw_conv2d.o(i.dw_conv2d_run) refers to nnom_local.o(i.local_depthwise_separable_conv_HWC_q7_nonsquare) for local_depthwise_separable_conv_HWC_q7_nonsquare
    nnom_dw_conv2d.o(i.dw_conv2d_s) refers to nnom_conv2d.o(i.conv2d_s) for conv2d_s
    nnom_dw_conv2d.o(i.dw_conv2d_s) refers to nnom_dw_conv2d.o(i.dw_conv2d_run) for dw_conv2d_run
    nnom_dw_conv2d.o(i.dw_conv2d_s) refers to nnom_dw_conv2d.o(i.dw_conv2d_build) for dw_conv2d_build
    nnom_flatten.o(i.Flatten) refers to nnom.o(i.nnom_mem) for nnom_mem
    nnom_flatten.o(i.Flatten) refers to nnom_layers.o(i.io_init) for io_init
    nnom_flatten.o(i.Flatten) refers to nnom_flatten.o(i.flatten_run) for flatten_run
    nnom_flatten.o(i.Flatten) refers to nnom_flatten.o(i.flatten_build) for flatten_build
    nnom_flatten.o(i.flatten_build) refers to nnom_tensor.o(i.tensor_get_num_channel) for tensor_get_num_channel
    nnom_flatten.o(i.flatten_build) refers to nnom_tensor.o(i.new_tensor) for new_tensor
    nnom_flatten.o(i.flatten_build) refers to nnom_tensor.o(i.tensor_size) for tensor_size
    nnom_flatten.o(i.flatten_build) refers to nnom_tensor.o(i.tensor_set_attr) for tensor_set_attr
    nnom_flatten.o(i.flatten_s) refers to nnom_flatten.o(i.Flatten) for Flatten
    nnom_global_pool.o(i.GlobalAvgPool) refers to nnom_layers.o(i.stride) for stride
    nnom_global_pool.o(i.GlobalAvgPool) refers to nnom_layers.o(i.kernel) for kernel
    nnom_global_pool.o(i.GlobalAvgPool) refers to nnom_maxpool.o(i.MaxPool) for MaxPool
    nnom_global_pool.o(i.GlobalAvgPool) refers to nnom_avgpool.o(i.avgpool_run) for avgpool_run
    nnom_global_pool.o(i.GlobalAvgPool) refers to nnom_global_pool.o(i.global_pool_build) for global_pool_build
    nnom_global_pool.o(i.GlobalMaxPool) refers to nnom_layers.o(i.stride) for stride
    nnom_global_pool.o(i.GlobalMaxPool) refers to nnom_layers.o(i.kernel) for kernel
    nnom_global_pool.o(i.GlobalMaxPool) refers to nnom_maxpool.o(i.MaxPool) for MaxPool
    nnom_global_pool.o(i.GlobalMaxPool) refers to nnom_global_pool.o(i.global_pool_build) for global_pool_build
    nnom_global_pool.o(i.GlobalSumPool) refers to nnom_layers.o(i.stride) for stride
    nnom_global_pool.o(i.GlobalSumPool) refers to nnom_layers.o(i.kernel) for kernel
    nnom_global_pool.o(i.GlobalSumPool) refers to nnom_maxpool.o(i.MaxPool) for MaxPool
    nnom_global_pool.o(i.GlobalSumPool) refers to nnom_sumpool.o(i.sumpool_run) for sumpool_run
    nnom_global_pool.o(i.GlobalSumPool) refers to nnom_global_pool.o(i.global_pool_build) for global_pool_build
    nnom_global_pool.o(i.global_avgpool_s) refers to nnom_global_pool.o(i.GlobalAvgPool) for GlobalAvgPool
    nnom_global_pool.o(i.global_maxpool_s) refers to nnom_global_pool.o(i.GlobalMaxPool) for GlobalMaxPool
    nnom_global_pool.o(i.global_pool_build) refers to nnom_tensor.o(i.tensor_get_num_channel) for tensor_get_num_channel
    nnom_global_pool.o(i.global_pool_build) refers to nnom_tensor.o(i.new_tensor) for new_tensor
    nnom_global_pool.o(i.global_pool_build) refers to nnom_tensor.o(i.tensor_set_attr_v) for tensor_set_attr_v
    nnom_global_pool.o(i.global_pool_build) refers to nnom_activation.o(i.act_get_dec_bit) for act_get_dec_bit
    nnom_global_pool.o(i.global_pool_build) refers to nnom_layers.o(i.shape) for shape
    nnom_global_pool.o(i.global_pool_build) refers to nnom_tensor.o(i.tensor_size) for tensor_size
    nnom_global_pool.o(i.global_sumpool_s) refers to nnom_global_pool.o(i.GlobalSumPool) for GlobalSumPool
    nnom_gru_cell.o(i.gru_cell_run) refers to nnom_local.o(i.local_q7_to_q15) for local_q7_to_q15
    nnom_gru_cell.o(i.gru_cell_run) refers to nnom_local_q15.o(i.local_fully_connected_mat_q7_vec_q15_opt) for local_fully_connected_mat_q7_vec_q15_opt
    nnom_gru_cell.o(i.gru_cell_run) refers to nnom_local_q15.o(i.local_add_q15) for local_add_q15
    nnom_gru_cell.o(i.gru_cell_run) refers to nnom_local_q15.o(i.local_sigmoid_q15) for local_sigmoid_q15
    nnom_gru_cell.o(i.gru_cell_run) refers to nnom_local_q15.o(i.local_mult_q15) for local_mult_q15
    nnom_gru_cell.o(i.gru_cell_run) refers to nnom_local_q15.o(i.local_tanh_q15) for local_tanh_q15
    nnom_gru_cell.o(i.gru_cell_run) refers to nnom_local_q15.o(i.local_1_minor_z_q15) for local_1_minor_z_q15
    nnom_gru_cell.o(i.gru_cell_run) refers to nnom_local.o(i.local_q15_to_q7) for local_q15_to_q7
    nnom_gru_cell.o(i.gru_cell_s) refers to nnom.o(i.nnom_mem) for nnom_mem
    nnom_gru_cell.o(i.gru_cell_s) refers to nnom_gru_cell.o(i.gru_cell_run) for gru_cell_run
    nnom_gru_cell.o(i.gru_cell_s) refers to nnom_gru_cell.o(i.gru_cell_build) for gru_cell_build
    nnom_gru_cell.o(i.gru_cell_s) refers to nnom_gru_cell.o(i.gru_cell_free) for gru_cell_free
    nnom_input.o(i.Input) refers to nnom.o(i.nnom_mem) for nnom_mem
    nnom_input.o(i.Input) refers to nnom_layers.o(i.io_init) for io_init
    nnom_input.o(i.Input) refers to nnom_tensor.o(i.new_tensor) for new_tensor
    nnom_input.o(i.Input) refers to nnom_tensor.o(i.tensor_set_attr_v) for tensor_set_attr_v
    nnom_input.o(i.Input) refers to nnom_input.o(i.input_run) for input_run
    nnom_input.o(i.Input) refers to nnom_input.o(i.input_build) for input_build
    nnom_input.o(i.input_build) refers to nnom_tensor.o(i.tensor_get_num_channel) for tensor_get_num_channel
    nnom_input.o(i.input_build) refers to nnom_tensor.o(i.new_tensor) for new_tensor
    nnom_input.o(i.input_build) refers to nnom_tensor.o(i.tensor_cpy_attr) for tensor_cpy_attr
    nnom_input.o(i.input_run) refers to nnom_tensor.o(i.tensor_size) for tensor_size
    nnom_input.o(i.input_run) refers to memcpya.o(.text) for __aeabi_memcpy
    nnom_input.o(i.input_s) refers to nnom.o(i.nnom_mem) for nnom_mem
    nnom_input.o(i.input_s) refers to nnom_layers.o(i.io_init) for io_init
    nnom_input.o(i.input_s) refers to nnom_layers.o(i.shape) for shape
    nnom_input.o(i.input_s) refers to nnom_tensor.o(i.tensor_get_num_channel) for tensor_get_num_channel
    nnom_input.o(i.input_s) refers to nnom_tensor.o(i.new_tensor) for new_tensor
    nnom_input.o(i.input_s) refers to nnom_tensor.o(i.tensor_set_attr_v) for tensor_set_attr_v
    nnom_input.o(i.input_s) refers to nnom_input.o(i.input_run) for input_run
    nnom_input.o(i.input_s) refers to nnom_input.o(i.input_build) for input_build
    nnom_lambda.o(i.Lambda) refers to nnom.o(i.nnom_mem) for nnom_mem
    nnom_lambda.o(i.Lambda) refers to nnom_layers.o(i.io_init) for io_init
    nnom_lambda.o(i.Lambda) refers to nnom_baselayer.o(i.default_build) for default_build
    nnom_lambda.o(i.Lambda) refers to nnom_baselayer.o(i.default_run) for default_run
    nnom_lambda.o(i.lambda_s) refers to nnom_lambda.o(i.Lambda) for Lambda
    nnom_lstm_cell.o(i.lstm_cell_q7_q15_run) refers to nnom_local.o(i.local_q7_to_q15) for local_q7_to_q15
    nnom_lstm_cell.o(i.lstm_cell_q7_q15_run) refers to nnom_local_q15.o(i.local_fully_connected_mat_q7_vec_q15_opt) for local_fully_connected_mat_q7_vec_q15_opt
    nnom_lstm_cell.o(i.lstm_cell_q7_q15_run) refers to nnom_local_q15.o(i.local_add_q15) for local_add_q15
    nnom_lstm_cell.o(i.lstm_cell_q7_q15_run) refers to nnom_local_q15.o(i.local_sigmoid_q15) for local_sigmoid_q15
    nnom_lstm_cell.o(i.lstm_cell_q7_q15_run) refers to nnom_local_q15.o(i.local_tanh_q15) for local_tanh_q15
    nnom_lstm_cell.o(i.lstm_cell_q7_q15_run) refers to nnom_local_q15.o(i.local_mult_q15) for local_mult_q15
    nnom_lstm_cell.o(i.lstm_cell_q7_q15_run) refers to memcpya.o(.text) for __aeabi_memcpy
    nnom_lstm_cell.o(i.lstm_cell_q7_q15_run) refers to nnom_local.o(i.local_q15_to_q7) for local_q15_to_q7
    nnom_lstm_cell.o(i.lstm_cell_s) refers to nnom.o(i.nnom_mem) for nnom_mem
    nnom_lstm_cell.o(i.lstm_cell_s) refers to nnom_lstm_cell.o(i.lstm_cell_q7_q15_run) for lstm_cell_q7_q15_run
    nnom_lstm_cell.o(i.lstm_cell_s) refers to nnom_lstm_cell.o(i.lstm_cell_q7_q15_build) for lstm_cell_q7_q15_build
    nnom_lstm_cell.o(i.lstm_cell_s) refers to nnom_lstm_cell.o(i.lstm_cell_free) for lstm_cell_free
    nnom_matrix.o(i.Add) refers to nnom_matrix.o(i._same_shape_matrix_layer) for _same_shape_matrix_layer
    nnom_matrix.o(i.Add) refers to nnom_matrix.o(i.add_run) for add_run
    nnom_matrix.o(i.Mult) refers to nnom_matrix.o(i._same_shape_matrix_layer) for _same_shape_matrix_layer
    nnom_matrix.o(i.Mult) refers to nnom_matrix.o(i.mult_run) for mult_run
    nnom_matrix.o(i.Sub) refers to nnom_matrix.o(i._same_shape_matrix_layer) for _same_shape_matrix_layer
    nnom_matrix.o(i.Sub) refers to nnom_matrix.o(i.sub_run) for sub_run
    nnom_matrix.o(i._same_shape_matrix_layer) refers to nnom.o(i.nnom_mem) for nnom_mem
    nnom_matrix.o(i._same_shape_matrix_layer) refers to nnom_layers.o(i.io_init) for io_init
    nnom_matrix.o(i._same_shape_matrix_layer) refers to nnom_matrix.o(i.matrix_build) for matrix_build
    nnom_matrix.o(i.add_run) refers to nnom_tensor.o(i.tensor_size) for tensor_size
    nnom_matrix.o(i.add_run) refers to nnom.o(i.nnom_io_length) for nnom_io_length
    nnom_matrix.o(i.add_run) refers to nnom_local.o(i.local_add_q7) for local_add_q7
    nnom_matrix.o(i.add_run) refers to nnom_local.o(i.local_multiple_add_q7) for local_multiple_add_q7
    nnom_matrix.o(i.add_s) refers to nnom_matrix.o(i.Add) for Add
    nnom_matrix.o(i.matrix_build) refers to nnom_tensor.o(i.tensor_get_num_channel) for tensor_get_num_channel
    nnom_matrix.o(i.matrix_build) refers to nnom_tensor.o(i.new_tensor) for new_tensor
    nnom_matrix.o(i.matrix_build) refers to nnom_tensor.o(i.tensor_cpy_attr) for tensor_cpy_attr
    nnom_matrix.o(i.matrix_build) refers to nnom_activation.o(i.act_get_dec_bit) for act_get_dec_bit
    nnom_matrix.o(i.mult_run) refers to nnom_tensor.o(i.tensor_size) for tensor_size
    nnom_matrix.o(i.mult_run) refers to nnom.o(i.nnom_io_length) for nnom_io_length
    nnom_matrix.o(i.mult_run) refers to nnom_local.o(i.local_mult_q7) for local_mult_q7
    nnom_matrix.o(i.mult_run) refers to nnom_local.o(i.local_multiple_mult_q7) for local_multiple_mult_q7
    nnom_matrix.o(i.mult_s) refers to nnom_matrix.o(i.Mult) for Mult
    nnom_matrix.o(i.sub_run) refers to nnom_tensor.o(i.tensor_size) for tensor_size
    nnom_matrix.o(i.sub_run) refers to nnom.o(i.nnom_io_length) for nnom_io_length
    nnom_matrix.o(i.sub_run) refers to nnom_local.o(i.local_sub_q7) for local_sub_q7
    nnom_matrix.o(i.sub_run) refers to nnom_local.o(i.local_multiple_sub_q7) for local_multiple_sub_q7
    nnom_matrix.o(i.sub_s) refers to nnom_matrix.o(i.Sub) for Sub
    nnom_maxpool.o(i.MaxPool) refers to nnom.o(i.nnom_mem) for nnom_mem
    nnom_maxpool.o(i.MaxPool) refers to nnom_layers.o(i.io_init) for io_init
    nnom_maxpool.o(i.MaxPool) refers to nnom_maxpool.o(i.maxpool_run) for maxpool_run
    nnom_maxpool.o(i.MaxPool) refers to nnom_maxpool.o(i.maxpool_build) for maxpool_build
    nnom_maxpool.o(i.maxpool_build) refers to nnom_tensor.o(i.tensor_get_num_channel) for tensor_get_num_channel
    nnom_maxpool.o(i.maxpool_build) refers to nnom_tensor.o(i.new_tensor) for new_tensor
    nnom_maxpool.o(i.maxpool_build) refers to nnom_tensor.o(i.tensor_cpy_attr) for tensor_cpy_attr
    nnom_maxpool.o(i.maxpool_build) refers to nnom_activation.o(i.act_get_dec_bit) for act_get_dec_bit
    nnom_maxpool.o(i.maxpool_run) refers to nnom_local.o(i.local_maxpool_q7_HWC) for local_maxpool_q7_HWC
    nnom_maxpool.o(i.maxpool_s) refers to nnom_layers.o(i.stride) for stride
    nnom_maxpool.o(i.maxpool_s) refers to nnom_layers.o(i.kernel) for kernel
    nnom_maxpool.o(i.maxpool_s) refers to nnom_maxpool.o(i.MaxPool) for MaxPool
    nnom_output.o(i.Output) refers to nnom_input.o(i.Input) for Input
    nnom_output.o(i.Output) refers to nnom.o(i.nnom_free) for nnom_free
    nnom_output.o(i.Output) refers to nnom_output.o(i.output_run) for output_run
    nnom_output.o(i.Output) refers to nnom_baselayer.o(i.default_build) for default_build
    nnom_output.o(i.output_run) refers to nnom_tensor.o(i.tensor_size) for tensor_size
    nnom_output.o(i.output_run) refers to memcpya.o(.text) for __aeabi_memcpy
    nnom_output.o(i.output_s) refers to nnom_input.o(i.input_s) for input_s
    nnom_output.o(i.output_s) refers to nnom.o(i.nnom_free) for nnom_free
    nnom_output.o(i.output_s) refers to nnom_output.o(i.output_run) for output_run
    nnom_output.o(i.output_s) refers to nnom_baselayer.o(i.default_build) for default_build
    nnom_reshape.o(i.reshape_build) refers to nnom_tensor.o(i.new_tensor) for new_tensor
    nnom_reshape.o(i.reshape_build) refers to nnom_tensor.o(i.tensor_set_attr) for tensor_set_attr
    nnom_reshape.o(i.reshape_s) refers to nnom.o(i.nnom_mem) for nnom_mem
    nnom_reshape.o(i.reshape_s) refers to nnom_layers.o(i.io_init) for io_init
    nnom_reshape.o(i.reshape_s) refers to nnom_reshape.o(i.reshape_run) for reshape_run
    nnom_reshape.o(i.reshape_s) refers to nnom_reshape.o(i.reshape_build) for reshape_build
    nnom_rnn.o(i.rnn_build) refers to nnom_tensor.o(i.new_tensor) for new_tensor
    nnom_rnn.o(i.rnn_build) refers to nnom_activation.o(i.act_get_dec_bit) for act_get_dec_bit
    nnom_rnn.o(i.rnn_build) refers to nnom_tensor.o(i.tensor_get_num_channel) for tensor_get_num_channel
    nnom_rnn.o(i.rnn_build) refers to nnom.o(i.nnom_mem) for nnom_mem
    nnom_rnn.o(i.rnn_free) refers to nnom.o(i.nnom_free) for nnom_free
    nnom_rnn.o(i.rnn_run) refers to nnom_tensor.o(i.tensor_get_num_channel) for tensor_get_num_channel
    nnom_rnn.o(i.rnn_run) refers to memseta.o(.text) for __aeabi_memclr
    nnom_rnn.o(i.rnn_s) refers to nnom.o(i.nnom_mem) for nnom_mem
    nnom_rnn.o(i.rnn_s) refers to nnom_layers.o(i.io_init) for io_init
    nnom_rnn.o(i.rnn_s) refers to nnom_rnn.o(i.rnn_run) for rnn_run
    nnom_rnn.o(i.rnn_s) refers to nnom_rnn.o(i.rnn_build) for rnn_build
    nnom_rnn.o(i.rnn_s) refers to nnom_rnn.o(i.rnn_free) for rnn_free
    nnom_simple_cell.o(i.simple_cell_run) refers to nnom_local.o(i.local_dot_q7_opt) for local_dot_q7_opt
    nnom_simple_cell.o(i.simple_cell_run) refers to nnom_local.o(i.local_fully_connected_q7_opt) for local_fully_connected_q7_opt
    nnom_simple_cell.o(i.simple_cell_run) refers to nnom_local.o(i.local_add_q7) for local_add_q7
    nnom_simple_cell.o(i.simple_cell_run) refers to nnom_local.o(i.local_sigmoid_q7) for local_sigmoid_q7
    nnom_simple_cell.o(i.simple_cell_run) refers to memcpya.o(.text) for __aeabi_memcpy
    nnom_simple_cell.o(i.simple_cell_run) refers to nnom_local.o(i.local_tanh_q7) for local_tanh_q7
    nnom_simple_cell.o(i.simple_cell_s) refers to nnom.o(i.nnom_mem) for nnom_mem
    nnom_simple_cell.o(i.simple_cell_s) refers to nnom_simple_cell.o(i.simple_cell_run) for simple_cell_run
    nnom_simple_cell.o(i.simple_cell_s) refers to nnom_simple_cell.o(i.simple_cell_build) for simple_cell_build
    nnom_simple_cell.o(i.simple_cell_s) refers to nnom_simple_cell.o(i.simple_cell_free) for simple_cell_free
    nnom_softmax.o(i.Softmax) refers to nnom.o(i.nnom_mem) for nnom_mem
    nnom_softmax.o(i.Softmax) refers to nnom_layers.o(i.io_init) for io_init
    nnom_softmax.o(i.Softmax) refers to nnom_softmax.o(i.softmax_run) for softmax_run
    nnom_softmax.o(i.Softmax) refers to nnom_softmax.o(i.softmax_build) for softmax_build
    nnom_softmax.o(i.softmax_build) refers to nnom_tensor.o(i.tensor_get_num_channel) for tensor_get_num_channel
    nnom_softmax.o(i.softmax_build) refers to nnom_tensor.o(i.new_tensor) for new_tensor
    nnom_softmax.o(i.softmax_build) refers to nnom_tensor.o(i.tensor_cpy_attr) for tensor_cpy_attr
    nnom_softmax.o(i.softmax_run) refers to nnom_tensor.o(i.tensor_size) for tensor_size
    nnom_softmax.o(i.softmax_run) refers to nnom_local.o(i.local_softmax_q7) for local_softmax_q7
    nnom_softmax.o(i.softmax_s) refers to nnom_softmax.o(i.Softmax) for Softmax
    nnom_sumpool.o(i.SumPool) refers to nnom_maxpool.o(i.MaxPool) for MaxPool
    nnom_sumpool.o(i.SumPool) refers to nnom_sumpool.o(i.sumpool_run) for sumpool_run
    nnom_sumpool.o(i.SumPool) refers to nnom_sumpool.o(i.sumpool_build) for sumpool_build
    nnom_sumpool.o(i.sumpool_build) refers to nnom_maxpool.o(i.maxpool_build) for maxpool_build
    nnom_sumpool.o(i.sumpool_build) refers to nnom_tensor.o(i.tensor_size) for tensor_size
    nnom_sumpool.o(i.sumpool_run) refers to nnom_local.o(i.local_sumpool_q7_HWC) for local_sumpool_q7_HWC
    nnom_sumpool.o(i.sumpool_s) refers to nnom_layers.o(i.stride) for stride
    nnom_sumpool.o(i.sumpool_s) refers to nnom_layers.o(i.kernel) for kernel
    nnom_sumpool.o(i.sumpool_s) refers to nnom_sumpool.o(i.SumPool) for SumPool
    nnom_upsample.o(i.UpSample) refers to nnom.o(i.nnom_mem) for nnom_mem
    nnom_upsample.o(i.UpSample) refers to nnom_layers.o(i.io_init) for io_init
    nnom_upsample.o(i.UpSample) refers to nnom_upsample.o(i.upsample_run) for upsample_run
    nnom_upsample.o(i.UpSample) refers to nnom_upsample.o(i.upsample_build) for upsample_build
    nnom_upsample.o(i.upsample_build) refers to nnom_tensor.o(i.tensor_get_num_channel) for tensor_get_num_channel
    nnom_upsample.o(i.upsample_build) refers to nnom_tensor.o(i.new_tensor) for new_tensor
    nnom_upsample.o(i.upsample_build) refers to nnom_tensor.o(i.tensor_cpy_attr) for tensor_cpy_attr
    nnom_upsample.o(i.upsample_build) refers to nnom_activation.o(i.act_get_dec_bit) for act_get_dec_bit
    nnom_upsample.o(i.upsample_run) refers to nnom_local.o(i.local_up_sampling_q7_HWC) for local_up_sampling_q7_HWC
    nnom_upsample.o(i.upsample_s) refers to nnom_layers.o(i.kernel) for kernel
    nnom_upsample.o(i.upsample_s) refers to nnom_upsample.o(i.UpSample) for UpSample
    nnom_zero_padding.o(i.ZeroPadding) refers to nnom.o(i.nnom_mem) for nnom_mem
    nnom_zero_padding.o(i.ZeroPadding) refers to nnom_layers.o(i.io_init) for io_init
    nnom_zero_padding.o(i.ZeroPadding) refers to nnom_zero_padding.o(i.zero_padding_run) for zero_padding_run
    nnom_zero_padding.o(i.ZeroPadding) refers to nnom_zero_padding.o(i.zero_padding_build) for zero_padding_build
    nnom_zero_padding.o(i.zero_padding_build) refers to nnom_tensor.o(i.tensor_get_num_channel) for tensor_get_num_channel
    nnom_zero_padding.o(i.zero_padding_build) refers to nnom_tensor.o(i.new_tensor) for new_tensor
    nnom_zero_padding.o(i.zero_padding_build) refers to nnom_tensor.o(i.tensor_cpy_attr) for tensor_cpy_attr
    nnom_zero_padding.o(i.zero_padding_build) refers to nnom_activation.o(i.act_get_dec_bit) for act_get_dec_bit
    nnom_zero_padding.o(i.zero_padding_run) refers to nnom_local.o(i.local_zero_padding_HWC_q7) for local_zero_padding_HWC_q7
    nnom_zero_padding.o(i.zeropadding_s) refers to nnom_zero_padding.o(i.ZeroPadding) for ZeroPadding
    round.o(i.round) refers (Special) to iusefp.o(.text) for __I$use$fp
    round.o(i.round) refers to drnd.o(.text) for _drnd
    round.o(i.round) refers to dadd.o(.text) for __aeabi_drsub
    round.o(i.round) refers to cdcmple.o(.text) for __aeabi_cdcmple
    round.o(i.round) refers to cdrcmple.o(.text) for __aeabi_cdrcmple
    entry.o(.ARM.Collect$$$$00000000) refers (Special) to entry10a.o(.ARM.Collect$$$$0000000D) for __rt_final_cpp
    entry.o(.ARM.Collect$$$$00000000) refers (Special) to entry11a.o(.ARM.Collect$$$$0000000F) for __rt_final_exit
    entry.o(.ARM.Collect$$$$00000000) refers (Special) to entry7b.o(.ARM.Collect$$$$00000008) for _main_clock
    entry.o(.ARM.Collect$$$$00000000) refers (Special) to entry8b.o(.ARM.Collect$$$$0000000A) for _main_cpp_init
    entry.o(.ARM.Collect$$$$00000000) refers (Special) to entry9a.o(.ARM.Collect$$$$0000000B) for _main_init
    entry.o(.ARM.Collect$$$$00000000) refers (Special) to entry5.o(.ARM.Collect$$$$00000004) for _main_scatterload
    entry.o(.ARM.Collect$$$$00000000) refers (Special) to entry2.o(.ARM.Collect$$$$00000001) for _main_stk
    uldiv.o(.text) refers to llushr.o(.text) for __aeabi_llsr
    uldiv.o(.text) refers to llshl.o(.text) for __aeabi_llsl
    ldiv.o(.text) refers to uldiv.o(.text) for __aeabi_uldivmod
    printfb.o(i.__0fprintf$bare) refers to printfb.o(i._printf_core) for _printf_core
    printfb.o(i.__0fprintf$bare) refers to serial.o(i.fputc) for fputc
    printfb.o(i.__0printf$bare) refers to printfb.o(i._printf_core) for _printf_core
    printfb.o(i.__0printf$bare) refers to serial.o(i.fputc) for fputc
    printfb.o(i.__0printf$bare) refers to stdout.o(.data) for __stdout
    printfb.o(i.__0snprintf$bare) refers to printfb.o(i._printf_core) for _printf_core
    printfb.o(i.__0snprintf$bare) refers to printfb.o(i._snputc) for _snputc
    printfb.o(i.__0sprintf$bare) refers to printfb.o(i._printf_core) for _printf_core
    printfb.o(i.__0sprintf$bare) refers to printfb.o(i._sputc) for _sputc
    printfb.o(i.__0vfprintf$bare) refers to printfb.o(i._printf_core) for _printf_core
    printfb.o(i.__0vfprintf$bare) refers to serial.o(i.fputc) for fputc
    printfb.o(i.__0vprintf$bare) refers to printfb.o(i._printf_core) for _printf_core
    printfb.o(i.__0vprintf$bare) refers to serial.o(i.fputc) for fputc
    printfb.o(i.__0vprintf$bare) refers to stdout.o(.data) for __stdout
    printfb.o(i.__0vsnprintf$bare) refers to printfb.o(i._printf_core) for _printf_core
    printfb.o(i.__0vsnprintf$bare) refers to printfb.o(i._snputc) for _snputc
    printfb.o(i.__0vsprintf$bare) refers to printfb.o(i._printf_core) for _printf_core
    printfb.o(i.__0vsprintf$bare) refers to printfb.o(i._sputc) for _sputc
    printf0.o(i.__0fprintf$0) refers to printf0.o(i._printf_core) for _printf_core
    printf0.o(i.__0fprintf$0) refers to serial.o(i.fputc) for fputc
    printf0.o(i.__0printf$0) refers to printf0.o(i._printf_core) for _printf_core
    printf0.o(i.__0printf$0) refers to serial.o(i.fputc) for fputc
    printf0.o(i.__0printf$0) refers to stdout.o(.data) for __stdout
    printf0.o(i.__0snprintf$0) refers to printf0.o(i._printf_core) for _printf_core
    printf0.o(i.__0snprintf$0) refers to printf0.o(i._snputc) for _snputc
    printf0.o(i.__0sprintf$0) refers to printf0.o(i._printf_core) for _printf_core
    printf0.o(i.__0sprintf$0) refers to printf0.o(i._sputc) for _sputc
    printf0.o(i.__0vfprintf$0) refers to printf0.o(i._printf_core) for _printf_core
    printf0.o(i.__0vfprintf$0) refers to serial.o(i.fputc) for fputc
    printf0.o(i.__0vprintf$0) refers to printf0.o(i._printf_core) for _printf_core
    printf0.o(i.__0vprintf$0) refers to serial.o(i.fputc) for fputc
    printf0.o(i.__0vprintf$0) refers to stdout.o(.data) for __stdout
    printf0.o(i.__0vsnprintf$0) refers to printf0.o(i._printf_core) for _printf_core
    printf0.o(i.__0vsnprintf$0) refers to printf0.o(i._snputc) for _snputc
    printf0.o(i.__0vsprintf$0) refers to printf0.o(i._printf_core) for _printf_core
    printf0.o(i.__0vsprintf$0) refers to printf0.o(i._sputc) for _sputc
    printf1.o(i.__0fprintf$1) refers to printf1.o(i._printf_core) for _printf_core
    printf1.o(i.__0fprintf$1) refers to serial.o(i.fputc) for fputc
    printf1.o(i.__0printf$1) refers to printf1.o(i._printf_core) for _printf_core
    printf1.o(i.__0printf$1) refers to serial.o(i.fputc) for fputc
    printf1.o(i.__0printf$1) refers to stdout.o(.data) for __stdout
    printf1.o(i.__0snprintf$1) refers to printf1.o(i._printf_core) for _printf_core
    printf1.o(i.__0snprintf$1) refers to printf1.o(i._snputc) for _snputc
    printf1.o(i.__0sprintf$1) refers to printf1.o(i._printf_core) for _printf_core
    printf1.o(i.__0sprintf$1) refers to printf1.o(i._sputc) for _sputc
    printf1.o(i.__0vfprintf$1) refers to printf1.o(i._printf_core) for _printf_core
    printf1.o(i.__0vfprintf$1) refers to serial.o(i.fputc) for fputc
    printf1.o(i.__0vprintf$1) refers to printf1.o(i._printf_core) for _printf_core
    printf1.o(i.__0vprintf$1) refers to serial.o(i.fputc) for fputc
    printf1.o(i.__0vprintf$1) refers to stdout.o(.data) for __stdout
    printf1.o(i.__0vsnprintf$1) refers to printf1.o(i._printf_core) for _printf_core
    printf1.o(i.__0vsnprintf$1) refers to printf1.o(i._snputc) for _snputc
    printf1.o(i.__0vsprintf$1) refers to printf1.o(i._printf_core) for _printf_core
    printf1.o(i.__0vsprintf$1) refers to printf1.o(i._sputc) for _sputc
    printf1.o(i._printf_core) refers to uidiv.o(.text) for __aeabi_uidivmod
    printf2.o(i.__0fprintf$2) refers to printf2.o(i._printf_core) for _printf_core
    printf2.o(i.__0fprintf$2) refers to serial.o(i.fputc) for fputc
    printf2.o(i.__0printf$2) refers to printf2.o(i._printf_core) for _printf_core
    printf2.o(i.__0printf$2) refers to serial.o(i.fputc) for fputc
    printf2.o(i.__0printf$2) refers to stdout.o(.data) for __stdout
    printf2.o(i.__0snprintf$2) refers to printf2.o(i._printf_core) for _printf_core
    printf2.o(i.__0snprintf$2) refers to printf2.o(i._snputc) for _snputc
    printf2.o(i.__0sprintf$2) refers to printf2.o(i._printf_core) for _printf_core
    printf2.o(i.__0sprintf$2) refers to printf2.o(i._sputc) for _sputc
    printf2.o(i.__0vfprintf$2) refers to printf2.o(i._printf_core) for _printf_core
    printf2.o(i.__0vfprintf$2) refers to serial.o(i.fputc) for fputc
    printf2.o(i.__0vprintf$2) refers to printf2.o(i._printf_core) for _printf_core
    printf2.o(i.__0vprintf$2) refers to serial.o(i.fputc) for fputc
    printf2.o(i.__0vprintf$2) refers to stdout.o(.data) for __stdout
    printf2.o(i.__0vsnprintf$2) refers to printf2.o(i._printf_core) for _printf_core
    printf2.o(i.__0vsnprintf$2) refers to printf2.o(i._snputc) for _snputc
    printf2.o(i.__0vsprintf$2) refers to printf2.o(i._printf_core) for _printf_core
    printf2.o(i.__0vsprintf$2) refers to printf2.o(i._sputc) for _sputc
    printf3.o(i.__0fprintf$3) refers to printf3.o(i._printf_core) for _printf_core
    printf3.o(i.__0fprintf$3) refers to serial.o(i.fputc) for fputc
    printf3.o(i.__0printf$3) refers to printf3.o(i._printf_core) for _printf_core
    printf3.o(i.__0printf$3) refers to serial.o(i.fputc) for fputc
    printf3.o(i.__0printf$3) refers to stdout.o(.data) for __stdout
    printf3.o(i.__0snprintf$3) refers to printf3.o(i._printf_core) for _printf_core
    printf3.o(i.__0snprintf$3) refers to printf3.o(i._snputc) for _snputc
    printf3.o(i.__0sprintf$3) refers to printf3.o(i._printf_core) for _printf_core
    printf3.o(i.__0sprintf$3) refers to printf3.o(i._sputc) for _sputc
    printf3.o(i.__0vfprintf$3) refers to printf3.o(i._printf_core) for _printf_core
    printf3.o(i.__0vfprintf$3) refers to serial.o(i.fputc) for fputc
    printf3.o(i.__0vprintf$3) refers to printf3.o(i._printf_core) for _printf_core
    printf3.o(i.__0vprintf$3) refers to serial.o(i.fputc) for fputc
    printf3.o(i.__0vprintf$3) refers to stdout.o(.data) for __stdout
    printf3.o(i.__0vsnprintf$3) refers to printf3.o(i._printf_core) for _printf_core
    printf3.o(i.__0vsnprintf$3) refers to printf3.o(i._snputc) for _snputc
    printf3.o(i.__0vsprintf$3) refers to printf3.o(i._printf_core) for _printf_core
    printf3.o(i.__0vsprintf$3) refers to printf3.o(i._sputc) for _sputc
    printf3.o(i._printf_core) refers to uidiv.o(.text) for __aeabi_uidivmod
    printf4.o(i.__0fprintf$4) refers to printf4.o(i._printf_core) for _printf_core
    printf4.o(i.__0fprintf$4) refers to serial.o(i.fputc) for fputc
    printf4.o(i.__0printf$4) refers to printf4.o(i._printf_core) for _printf_core
    printf4.o(i.__0printf$4) refers to serial.o(i.fputc) for fputc
    printf4.o(i.__0printf$4) refers to stdout.o(.data) for __stdout
    printf4.o(i.__0snprintf$4) refers to printf4.o(i._printf_core) for _printf_core
    printf4.o(i.__0snprintf$4) refers to printf4.o(i._snputc) for _snputc
    printf4.o(i.__0sprintf$4) refers to printf4.o(i._printf_core) for _printf_core
    printf4.o(i.__0sprintf$4) refers to printf4.o(i._sputc) for _sputc
    printf4.o(i.__0vfprintf$4) refers to printf4.o(i._printf_core) for _printf_core
    printf4.o(i.__0vfprintf$4) refers to serial.o(i.fputc) for fputc
    printf4.o(i.__0vprintf$4) refers to printf4.o(i._printf_core) for _printf_core
    printf4.o(i.__0vprintf$4) refers to serial.o(i.fputc) for fputc
    printf4.o(i.__0vprintf$4) refers to stdout.o(.data) for __stdout
    printf4.o(i.__0vsnprintf$4) refers to printf4.o(i._printf_core) for _printf_core
    printf4.o(i.__0vsnprintf$4) refers to printf4.o(i._snputc) for _snputc
    printf4.o(i.__0vsprintf$4) refers to printf4.o(i._printf_core) for _printf_core
    printf4.o(i.__0vsprintf$4) refers to printf4.o(i._sputc) for _sputc
    printf4.o(i._printf_core) refers to uldiv.o(.text) for __aeabi_uldivmod
    printf5.o(i.__0fprintf$5) refers to printf5.o(i._printf_core) for _printf_core
    printf5.o(i.__0fprintf$5) refers to serial.o(i.fputc) for fputc
    printf5.o(i.__0printf$5) refers to printf5.o(i._printf_core) for _printf_core
    printf5.o(i.__0printf$5) refers to serial.o(i.fputc) for fputc
    printf5.o(i.__0printf$5) refers to stdout.o(.data) for __stdout
    printf5.o(i.__0snprintf$5) refers to printf5.o(i._printf_core) for _printf_core
    printf5.o(i.__0snprintf$5) refers to printf5.o(i._snputc) for _snputc
    printf5.o(i.__0sprintf$5) refers to printf5.o(i._printf_core) for _printf_core
    printf5.o(i.__0sprintf$5) refers to printf5.o(i._sputc) for _sputc
    printf5.o(i.__0vfprintf$5) refers to printf5.o(i._printf_core) for _printf_core
    printf5.o(i.__0vfprintf$5) refers to serial.o(i.fputc) for fputc
    printf5.o(i.__0vprintf$5) refers to printf5.o(i._printf_core) for _printf_core
    printf5.o(i.__0vprintf$5) refers to serial.o(i.fputc) for fputc
    printf5.o(i.__0vprintf$5) refers to stdout.o(.data) for __stdout
    printf5.o(i.__0vsnprintf$5) refers to printf5.o(i._printf_core) for _printf_core
    printf5.o(i.__0vsnprintf$5) refers to printf5.o(i._snputc) for _snputc
    printf5.o(i.__0vsprintf$5) refers to printf5.o(i._printf_core) for _printf_core
    printf5.o(i.__0vsprintf$5) refers to printf5.o(i._sputc) for _sputc
    printf5.o(i._printf_core) refers to uldiv.o(.text) for __aeabi_uldivmod
    printf6.o(i.__0fprintf$6) refers to printf6.o(i._printf_core) for _printf_core
    printf6.o(i.__0fprintf$6) refers to serial.o(i.fputc) for fputc
    printf6.o(i.__0printf$6) refers to printf6.o(i._printf_core) for _printf_core
    printf6.o(i.__0printf$6) refers to serial.o(i.fputc) for fputc
    printf6.o(i.__0printf$6) refers to stdout.o(.data) for __stdout
    printf6.o(i.__0snprintf$6) refers to printf6.o(i._printf_core) for _printf_core
    printf6.o(i.__0snprintf$6) refers to printf6.o(i._snputc) for _snputc
    printf6.o(i.__0sprintf$6) refers to printf6.o(i._printf_core) for _printf_core
    printf6.o(i.__0sprintf$6) refers to printf6.o(i._sputc) for _sputc
    printf6.o(i.__0vfprintf$6) refers to printf6.o(i._printf_core) for _printf_core
    printf6.o(i.__0vfprintf$6) refers to serial.o(i.fputc) for fputc
    printf6.o(i.__0vprintf$6) refers to printf6.o(i._printf_core) for _printf_core
    printf6.o(i.__0vprintf$6) refers to serial.o(i.fputc) for fputc
    printf6.o(i.__0vprintf$6) refers to stdout.o(.data) for __stdout
    printf6.o(i.__0vsnprintf$6) refers to printf6.o(i._printf_core) for _printf_core
    printf6.o(i.__0vsnprintf$6) refers to printf6.o(i._snputc) for _snputc
    printf6.o(i.__0vsprintf$6) refers to printf6.o(i._printf_core) for _printf_core
    printf6.o(i.__0vsprintf$6) refers to printf6.o(i._sputc) for _sputc
    printf6.o(i._printf_core) refers to printf6.o(i._printf_pre_padding) for _printf_pre_padding
    printf6.o(i._printf_core) refers to uidiv.o(.text) for __aeabi_uidivmod
    printf6.o(i._printf_core) refers to printf6.o(i._printf_post_padding) for _printf_post_padding
    printf7.o(i.__0fprintf$7) refers to printf7.o(i._printf_core) for _printf_core
    printf7.o(i.__0fprintf$7) refers to serial.o(i.fputc) for fputc
    printf7.o(i.__0printf$7) refers to printf7.o(i._printf_core) for _printf_core
    printf7.o(i.__0printf$7) refers to serial.o(i.fputc) for fputc
    printf7.o(i.__0printf$7) refers to stdout.o(.data) for __stdout
    printf7.o(i.__0snprintf$7) refers to printf7.o(i._printf_core) for _printf_core
    printf7.o(i.__0snprintf$7) refers to printf7.o(i._snputc) for _snputc
    printf7.o(i.__0sprintf$7) refers to printf7.o(i._printf_core) for _printf_core
    printf7.o(i.__0sprintf$7) refers to printf7.o(i._sputc) for _sputc
    printf7.o(i.__0vfprintf$7) refers to printf7.o(i._printf_core) for _printf_core
    printf7.o(i.__0vfprintf$7) refers to serial.o(i.fputc) for fputc
    printf7.o(i.__0vprintf$7) refers to printf7.o(i._printf_core) for _printf_core
    printf7.o(i.__0vprintf$7) refers to serial.o(i.fputc) for fputc
    printf7.o(i.__0vprintf$7) refers to stdout.o(.data) for __stdout
    printf7.o(i.__0vsnprintf$7) refers to printf7.o(i._printf_core) for _printf_core
    printf7.o(i.__0vsnprintf$7) refers to printf7.o(i._snputc) for _snputc
    printf7.o(i.__0vsprintf$7) refers to printf7.o(i._printf_core) for _printf_core
    printf7.o(i.__0vsprintf$7) refers to printf7.o(i._sputc) for _sputc
    printf7.o(i._printf_core) refers to printf7.o(i._printf_pre_padding) for _printf_pre_padding
    printf7.o(i._printf_core) refers to uldiv.o(.text) for __aeabi_uldivmod
    printf7.o(i._printf_core) refers to printf7.o(i._printf_post_padding) for _printf_post_padding
    printf8.o(i.__0fprintf$8) refers to printf8.o(i._printf_core) for _printf_core
    printf8.o(i.__0fprintf$8) refers to serial.o(i.fputc) for fputc
    printf8.o(i.__0printf$8) refers to printf8.o(i._printf_core) for _printf_core
    printf8.o(i.__0printf$8) refers to serial.o(i.fputc) for fputc
    printf8.o(i.__0printf$8) refers to stdout.o(.data) for __stdout
    printf8.o(i.__0snprintf$8) refers to printf8.o(i._printf_core) for _printf_core
    printf8.o(i.__0snprintf$8) refers to printf8.o(i._snputc) for _snputc
    printf8.o(i.__0sprintf$8) refers to printf8.o(i._printf_core) for _printf_core
    printf8.o(i.__0sprintf$8) refers to printf8.o(i._sputc) for _sputc
    printf8.o(i.__0vfprintf$8) refers to printf8.o(i._printf_core) for _printf_core
    printf8.o(i.__0vfprintf$8) refers to serial.o(i.fputc) for fputc
    printf8.o(i.__0vprintf$8) refers to printf8.o(i._printf_core) for _printf_core
    printf8.o(i.__0vprintf$8) refers to serial.o(i.fputc) for fputc
    printf8.o(i.__0vprintf$8) refers to stdout.o(.data) for __stdout
    printf8.o(i.__0vsnprintf$8) refers to printf8.o(i._printf_core) for _printf_core
    printf8.o(i.__0vsnprintf$8) refers to printf8.o(i._snputc) for _snputc
    printf8.o(i.__0vsprintf$8) refers to printf8.o(i._printf_core) for _printf_core
    printf8.o(i.__0vsprintf$8) refers to printf8.o(i._sputc) for _sputc
    printf8.o(i._printf_core) refers to printf8.o(i._printf_pre_padding) for _printf_pre_padding
    printf8.o(i._printf_core) refers to uldiv.o(.text) for __aeabi_uldivmod
    printf8.o(i._printf_core) refers to printf8.o(i._printf_post_padding) for _printf_post_padding
    printfa.o(i.__0fprintf) refers (Special) to iusefp.o(.text) for __I$use$fp
    printfa.o(i.__0fprintf) refers to printfa.o(i._printf_core) for _printf_core
    printfa.o(i.__0fprintf) refers to serial.o(i.fputc) for fputc
    printfa.o(i.__0printf) refers (Special) to iusefp.o(.text) for __I$use$fp
    printfa.o(i.__0printf) refers to printfa.o(i._printf_core) for _printf_core
    printfa.o(i.__0printf) refers to serial.o(i.fputc) for fputc
    printfa.o(i.__0printf) refers to stdout.o(.data) for __stdout
    printfa.o(i.__0snprintf) refers (Special) to iusefp.o(.text) for __I$use$fp
    printfa.o(i.__0snprintf) refers to printfa.o(i._printf_core) for _printf_core
    printfa.o(i.__0snprintf) refers to printfa.o(i._snputc) for _snputc
    printfa.o(i.__0sprintf) refers (Special) to iusefp.o(.text) for __I$use$fp
    printfa.o(i.__0sprintf) refers to printfa.o(i._printf_core) for _printf_core
    printfa.o(i.__0sprintf) refers to printfa.o(i._sputc) for _sputc
    printfa.o(i.__0vfprintf) refers (Special) to iusefp.o(.text) for __I$use$fp
    printfa.o(i.__0vfprintf) refers to printfa.o(i._printf_core) for _printf_core
    printfa.o(i.__0vfprintf) refers to serial.o(i.fputc) for fputc
    printfa.o(i.__0vprintf) refers (Special) to iusefp.o(.text) for __I$use$fp
    printfa.o(i.__0vprintf) refers to printfa.o(i._printf_core) for _printf_core
    printfa.o(i.__0vprintf) refers to serial.o(i.fputc) for fputc
    printfa.o(i.__0vprintf) refers to stdout.o(.data) for __stdout
    printfa.o(i.__0vsnprintf) refers (Special) to iusefp.o(.text) for __I$use$fp
    printfa.o(i.__0vsnprintf) refers to printfa.o(i._printf_core) for _printf_core
    printfa.o(i.__0vsnprintf) refers to printfa.o(i._snputc) for _snputc
    printfa.o(i.__0vsprintf) refers (Special) to iusefp.o(.text) for __I$use$fp
    printfa.o(i.__0vsprintf) refers to printfa.o(i._printf_core) for _printf_core
    printfa.o(i.__0vsprintf) refers to printfa.o(i._sputc) for _sputc
    printfa.o(i._fp_digits) refers (Special) to iusefp.o(.text) for __I$use$fp
    printfa.o(i._fp_digits) refers to dmul.o(.text) for __aeabi_dmul
    printfa.o(i._fp_digits) refers to ddiv.o(.text) for __aeabi_ddiv
    printfa.o(i._fp_digits) refers to cdrcmple.o(.text) for __aeabi_cdrcmple
    printfa.o(i._fp_digits) refers to dadd.o(.text) for __aeabi_dadd
    printfa.o(i._fp_digits) refers to dfixul.o(.text) for __aeabi_d2ulz
    printfa.o(i._fp_digits) refers to uldiv.o(.text) for __aeabi_uldivmod
    printfa.o(i._printf_core) refers (Special) to iusefp.o(.text) for __I$use$fp
    printfa.o(i._printf_core) refers to printfa.o(i._printf_pre_padding) for _printf_pre_padding
    printfa.o(i._printf_core) refers to uldiv.o(.text) for __aeabi_uldivmod
    printfa.o(i._printf_core) refers to printfa.o(i._printf_post_padding) for _printf_post_padding
    printfa.o(i._printf_core) refers to printfa.o(i._fp_digits) for _fp_digits
    printfa.o(i._printf_core) refers to uidiv.o(.text) for __aeabi_uidivmod
    printfa.o(i._printf_post_padding) refers (Special) to iusefp.o(.text) for __I$use$fp
    printfa.o(i._printf_pre_padding) refers (Special) to iusefp.o(.text) for __I$use$fp
    printfa.o(i._snputc) refers (Special) to iusefp.o(.text) for __I$use$fp
    printfa.o(i._sputc) refers (Special) to iusefp.o(.text) for __I$use$fp
    fadd.o(.text) refers (Special) to iusefp.o(.text) for __I$use$fp
    fadd.o(.text) refers to fepilogue.o(.text) for _float_epilogue
    fmul.o(.text) refers (Special) to iusefp.o(.text) for __I$use$fp
    fdiv.o(.text) refers (Special) to iusefp.o(.text) for __I$use$fp
    fdiv.o(.text) refers to fepilogue.o(.text) for _float_round
    fscalb.o(.text) refers (Special) to iusefp.o(.text) for __I$use$fp
    dadd.o(.text) refers (Special) to iusefp.o(.text) for __I$use$fp
    dadd.o(.text) refers to llshl.o(.text) for __aeabi_llsl
    dadd.o(.text) refers to llsshr.o(.text) for __aeabi_lasr
    dadd.o(.text) refers to depilogue.o(.text) for _double_epilogue
    dscalb.o(.text) refers (Special) to iusefp.o(.text) for __I$use$fp
    fflti.o(.text) refers (Special) to iusefp.o(.text) for __I$use$fp
    fflti.o(.text) refers to fepilogue.o(.text) for _float_epilogue
    ffltui.o(.text) refers (Special) to iusefp.o(.text) for __I$use$fp
    ffltui.o(.text) refers to fepilogue.o(.text) for _float_epilogue
    dflti.o(.text) refers (Special) to iusefp.o(.text) for __I$use$fp
    dflti.o(.text) refers to depilogue.o(.text) for _double_epilogue
    ffixi.o(.text) refers (Special) to iusefp.o(.text) for __I$use$fp
    ffixui.o(.text) refers (Special) to iusefp.o(.text) for __I$use$fp
    dfixi.o(.text) refers (Special) to iusefp.o(.text) for __I$use$fp
    dfixi.o(.text) refers to llushr.o(.text) for __aeabi_llsr
    dfixui.o(.text) refers (Special) to iusefp.o(.text) for __I$use$fp
    dfixui.o(.text) refers to llushr.o(.text) for __aeabi_llsr
    f2d.o(.text) refers (Special) to iusefp.o(.text) for __I$use$fp
    d2f.o(.text) refers (Special) to iusefp.o(.text) for __I$use$fp
    d2f.o(.text) refers to fepilogue.o(.text) for _float_round
    cfcmple.o(.text) refers (Special) to iusefp.o(.text) for __I$use$fp
    entry2.o(.ARM.Collect$$$$00000001) refers to entry2.o(.ARM.Collect$$$$00002712) for __lit__00000000
    entry2.o(.ARM.Collect$$$$00002712) refers to startup_stm32f10x_md.o(STACK) for __initial_sp
    entry2.o(__vectab_stack_and_reset_area) refers to startup_stm32f10x_md.o(STACK) for __initial_sp
    entry2.o(__vectab_stack_and_reset_area) refers to entry.o(.ARM.Collect$$$$00000000) for __main
    entry5.o(.ARM.Collect$$$$00000004) refers to init.o(.text) for __scatterload
    entry9a.o(.ARM.Collect$$$$0000000B) refers to main.o(i.main) for main
    entry9b.o(.ARM.Collect$$$$0000000C) refers to main.o(i.main) for main
    depilogue.o(.text) refers to llshl.o(.text) for __aeabi_llsl
    depilogue.o(.text) refers to llushr.o(.text) for __aeabi_llsr
    dmul.o(.text) refers to depilogue.o(.text) for _double_epilogue
    ddiv.o(.text) refers to depilogue.o(.text) for _double_round
    drnd.o(.text) refers to llshl.o(.text) for __aeabi_llsl
    drnd.o(.text) refers to llushr.o(.text) for __aeabi_llsr
    drnd.o(.text) refers to depilogue.o(.text) for _double_round
    dfixul.o(.text) refers to llushr.o(.text) for __aeabi_llsr
    dfixul.o(.text) refers to llshl.o(.text) for __aeabi_llsl
    init.o(.text) refers to entry5.o(.ARM.Collect$$$$00000004) for __main_after_scatterload


==============================================================================

Removing Unused input sections from the image.

    Removing startup_stm32f10x_md.o(HEAP), (512 bytes).
    Removing core_cm3.o(.emb_text), (32 bytes).
    Removing system_stm32f10x.o(i.SystemCoreClockUpdate), (124 bytes).
    Removing system_stm32f10x.o(.data), (20 bytes).
    Removing misc.o(i.NVIC_SetVectorTable), (20 bytes).
    Removing misc.o(i.NVIC_SystemLPConfig), (28 bytes).
    Removing misc.o(i.SysTick_CLKSourceConfig), (28 bytes).
    Removing stm32f10x_adc.o(i.ADC_AnalogWatchdogCmd), (16 bytes).
    Removing stm32f10x_adc.o(i.ADC_AnalogWatchdogSingleChannelConfig), (12 bytes).
    Removing stm32f10x_adc.o(i.ADC_AnalogWatchdogThresholdsConfig), (6 bytes).
    Removing stm32f10x_adc.o(i.ADC_AutoInjectedConvCmd), (24 bytes).
    Removing stm32f10x_adc.o(i.ADC_ClearFlag), (6 bytes).
    Removing stm32f10x_adc.o(i.ADC_ClearITPendingBit), (8 bytes).
    Removing stm32f10x_adc.o(i.ADC_Cmd), (24 bytes).
    Removing stm32f10x_adc.o(i.ADC_DMACmd), (24 bytes).
    Removing stm32f10x_adc.o(i.ADC_DeInit), (100 bytes).
    Removing stm32f10x_adc.o(i.ADC_DiscModeChannelCountConfig), (16 bytes).
    Removing stm32f10x_adc.o(i.ADC_DiscModeCmd), (24 bytes).
    Removing stm32f10x_adc.o(i.ADC_ExternalTrigConvCmd), (24 bytes).
    Removing stm32f10x_adc.o(i.ADC_ExternalTrigInjectedConvCmd), (24 bytes).
    Removing stm32f10x_adc.o(i.ADC_ExternalTrigInjectedConvConfig), (12 bytes).
    Removing stm32f10x_adc.o(i.ADC_GetCalibrationStatus), (14 bytes).
    Removing stm32f10x_adc.o(i.ADC_GetConversionValue), (6 bytes).
    Removing stm32f10x_adc.o(i.ADC_GetDualModeConversionValue), (12 bytes).
    Removing stm32f10x_adc.o(i.ADC_GetFlagStatus), (14 bytes).
    Removing stm32f10x_adc.o(i.ADC_GetITStatus), (28 bytes).
    Removing stm32f10x_adc.o(i.ADC_GetInjectedConversionValue), (20 bytes).
    Removing stm32f10x_adc.o(i.ADC_GetResetCalibrationStatus), (14 bytes).
    Removing stm32f10x_adc.o(i.ADC_GetSoftwareStartConvStatus), (14 bytes).
    Removing stm32f10x_adc.o(i.ADC_GetSoftwareStartInjectedConvCmdStatus), (14 bytes).
    Removing stm32f10x_adc.o(i.ADC_ITConfig), (22 bytes).
    Removing stm32f10x_adc.o(i.ADC_Init), (72 bytes).
    Removing stm32f10x_adc.o(i.ADC_InjectedChannelConfig), (74 bytes).
    Removing stm32f10x_adc.o(i.ADC_InjectedDiscModeCmd), (24 bytes).
    Removing stm32f10x_adc.o(i.ADC_InjectedSequencerLengthConfig), (16 bytes).
    Removing stm32f10x_adc.o(i.ADC_RegularChannelConfig), (116 bytes).
    Removing stm32f10x_adc.o(i.ADC_ResetCalibration), (10 bytes).
    Removing stm32f10x_adc.o(i.ADC_SetInjectedOffset), (16 bytes).
    Removing stm32f10x_adc.o(i.ADC_SoftwareStartConvCmd), (24 bytes).
    Removing stm32f10x_adc.o(i.ADC_SoftwareStartInjectedConvCmd), (24 bytes).
    Removing stm32f10x_adc.o(i.ADC_StartCalibration), (10 bytes).
    Removing stm32f10x_adc.o(i.ADC_StructInit), (18 bytes).
    Removing stm32f10x_adc.o(i.ADC_TempSensorVrefintCmd), (32 bytes).
    Removing stm32f10x_bkp.o(i.BKP_ClearFlag), (16 bytes).
    Removing stm32f10x_bkp.o(i.BKP_ClearITPendingBit), (16 bytes).
    Removing stm32f10x_bkp.o(i.BKP_DeInit), (18 bytes).
    Removing stm32f10x_bkp.o(i.BKP_GetFlagStatus), (12 bytes).
    Removing stm32f10x_bkp.o(i.BKP_GetITStatus), (12 bytes).
    Removing stm32f10x_bkp.o(i.BKP_ITConfig), (12 bytes).
    Removing stm32f10x_bkp.o(i.BKP_RTCOutputConfig), (20 bytes).
    Removing stm32f10x_bkp.o(i.BKP_ReadBackupRegister), (20 bytes).
    Removing stm32f10x_bkp.o(i.BKP_SetRTCCalibrationValue), (20 bytes).
    Removing stm32f10x_bkp.o(i.BKP_TamperPinCmd), (12 bytes).
    Removing stm32f10x_bkp.o(i.BKP_TamperPinLevelConfig), (12 bytes).
    Removing stm32f10x_bkp.o(i.BKP_WriteBackupRegister), (20 bytes).
    Removing stm32f10x_can.o(i.CAN_CancelTransmit), (42 bytes).
    Removing stm32f10x_can.o(i.CAN_ClearFlag), (48 bytes).
    Removing stm32f10x_can.o(i.CAN_ClearITPendingBit), (136 bytes).
    Removing stm32f10x_can.o(i.CAN_DBGFreeze), (24 bytes).
    Removing stm32f10x_can.o(i.CAN_DeInit), (56 bytes).
    Removing stm32f10x_can.o(i.CAN_FIFORelease), (24 bytes).
    Removing stm32f10x_can.o(i.CAN_FilterInit), (212 bytes).
    Removing stm32f10x_can.o(i.CAN_GetFlagStatus), (82 bytes).
    Removing stm32f10x_can.o(i.CAN_GetITStatus), (204 bytes).
    Removing stm32f10x_can.o(i.CAN_GetLSBTransmitErrorCounter), (8 bytes).
    Removing stm32f10x_can.o(i.CAN_GetLastErrorCode), (10 bytes).
    Removing stm32f10x_can.o(i.CAN_GetReceiveErrorCounter), (6 bytes).
    Removing stm32f10x_can.o(i.CAN_ITConfig), (20 bytes).
    Removing stm32f10x_can.o(i.CAN_Init), (260 bytes).
    Removing stm32f10x_can.o(i.CAN_MessagePending), (28 bytes).
    Removing stm32f10x_can.o(i.CAN_OperatingModeRequest), (154 bytes).
    Removing stm32f10x_can.o(i.CAN_Receive), (130 bytes).
    Removing stm32f10x_can.o(i.CAN_SlaveStartBank), (44 bytes).
    Removing stm32f10x_can.o(i.CAN_Sleep), (30 bytes).
    Removing stm32f10x_can.o(i.CAN_StructInit), (32 bytes).
    Removing stm32f10x_can.o(i.CAN_TTComModeCmd), (96 bytes).
    Removing stm32f10x_can.o(i.CAN_Transmit), (182 bytes).
    Removing stm32f10x_can.o(i.CAN_TransmitStatus), (136 bytes).
    Removing stm32f10x_can.o(i.CAN_WakeUp), (40 bytes).
    Removing stm32f10x_can.o(i.CheckITStatus), (12 bytes).
    Removing stm32f10x_cec.o(i.CEC_ClearFlag), (32 bytes).
    Removing stm32f10x_cec.o(i.CEC_ClearITPendingBit), (32 bytes).
    Removing stm32f10x_cec.o(i.CEC_Cmd), (28 bytes).
    Removing stm32f10x_cec.o(i.CEC_DeInit), (24 bytes).
    Removing stm32f10x_cec.o(i.CEC_EndOfMessageCmd), (12 bytes).
    Removing stm32f10x_cec.o(i.CEC_GetFlagStatus), (40 bytes).
    Removing stm32f10x_cec.o(i.CEC_GetITStatus), (36 bytes).
    Removing stm32f10x_cec.o(i.CEC_ITConfig), (12 bytes).
    Removing stm32f10x_cec.o(i.CEC_Init), (24 bytes).
    Removing stm32f10x_cec.o(i.CEC_OwnAddressConfig), (12 bytes).
    Removing stm32f10x_cec.o(i.CEC_ReceiveDataByte), (12 bytes).
    Removing stm32f10x_cec.o(i.CEC_SendDataByte), (12 bytes).
    Removing stm32f10x_cec.o(i.CEC_SetPrescaler), (12 bytes).
    Removing stm32f10x_cec.o(i.CEC_StartOfMessage), (12 bytes).
    Removing stm32f10x_crc.o(i.CRC_CalcBlockCRC), (28 bytes).
    Removing stm32f10x_crc.o(i.CRC_CalcCRC), (12 bytes).
    Removing stm32f10x_crc.o(i.CRC_GetCRC), (12 bytes).
    Removing stm32f10x_crc.o(i.CRC_GetIDRegister), (12 bytes).
    Removing stm32f10x_crc.o(i.CRC_ResetDR), (12 bytes).
    Removing stm32f10x_crc.o(i.CRC_SetIDRegister), (12 bytes).
    Removing stm32f10x_dac.o(i.DAC_Cmd), (32 bytes).
    Removing stm32f10x_dac.o(i.DAC_DMACmd), (32 bytes).
    Removing stm32f10x_dac.o(i.DAC_DeInit), (24 bytes).
    Removing stm32f10x_dac.o(i.DAC_DualSoftwareTriggerCmd), (32 bytes).
    Removing stm32f10x_dac.o(i.DAC_GetDataOutputValue), (24 bytes).
    Removing stm32f10x_dac.o(i.DAC_Init), (40 bytes).
    Removing stm32f10x_dac.o(i.DAC_SetChannel1Data), (20 bytes).
    Removing stm32f10x_dac.o(i.DAC_SetChannel2Data), (20 bytes).
    Removing stm32f10x_dac.o(i.DAC_SetDualChannelData), (28 bytes).
    Removing stm32f10x_dac.o(i.DAC_SoftwareTriggerCmd), (32 bytes).
    Removing stm32f10x_dac.o(i.DAC_StructInit), (12 bytes).
    Removing stm32f10x_dac.o(i.DAC_WaveGenerationCmd), (28 bytes).
    Removing stm32f10x_dbgmcu.o(i.DBGMCU_Config), (28 bytes).
    Removing stm32f10x_dbgmcu.o(i.DBGMCU_GetDEVID), (16 bytes).
    Removing stm32f10x_dbgmcu.o(i.DBGMCU_GetREVID), (12 bytes).
    Removing stm32f10x_dma.o(i.DMA_ClearFlag), (24 bytes).
    Removing stm32f10x_dma.o(i.DMA_ClearITPendingBit), (24 bytes).
    Removing stm32f10x_dma.o(i.DMA_Cmd), (26 bytes).
    Removing stm32f10x_dma.o(i.DMA_DeInit), (248 bytes).
    Removing stm32f10x_dma.o(i.DMA_GetCurrDataCounter), (6 bytes).
    Removing stm32f10x_dma.o(i.DMA_GetFlagStatus), (36 bytes).
    Removing stm32f10x_dma.o(i.DMA_GetITStatus), (36 bytes).
    Removing stm32f10x_dma.o(i.DMA_ITConfig), (20 bytes).
    Removing stm32f10x_dma.o(i.DMA_Init), (58 bytes).
    Removing stm32f10x_dma.o(i.DMA_SetCurrDataCounter), (4 bytes).
    Removing stm32f10x_dma.o(i.DMA_StructInit), (26 bytes).
    Removing stm32f10x_exti.o(i.EXTI_ClearFlag), (12 bytes).
    Removing stm32f10x_exti.o(i.EXTI_DeInit), (36 bytes).
    Removing stm32f10x_exti.o(i.EXTI_GenerateSWInterrupt), (16 bytes).
    Removing stm32f10x_exti.o(i.EXTI_GetFlagStatus), (20 bytes).
    Removing stm32f10x_exti.o(i.EXTI_StructInit), (14 bytes).
    Removing stm32f10x_flash.o(i.FLASH_ClearFlag), (12 bytes).
    Removing stm32f10x_flash.o(i.FLASH_EnableWriteProtection), (172 bytes).
    Removing stm32f10x_flash.o(i.FLASH_EraseAllBank1Pages), (56 bytes).
    Removing stm32f10x_flash.o(i.FLASH_EraseAllPages), (56 bytes).
    Removing stm32f10x_flash.o(i.FLASH_EraseOptionBytes), (136 bytes).
    Removing stm32f10x_flash.o(i.FLASH_ErasePage), (60 bytes).
    Removing stm32f10x_flash.o(i.FLASH_GetBank1Status), (40 bytes).
    Removing stm32f10x_flash.o(i.FLASH_GetFlagStatus), (36 bytes).
    Removing stm32f10x_flash.o(i.FLASH_GetPrefetchBufferStatus), (20 bytes).
    Removing stm32f10x_flash.o(i.FLASH_GetReadOutProtectionStatus), (20 bytes).
    Removing stm32f10x_flash.o(i.FLASH_GetStatus), (40 bytes).
    Removing stm32f10x_flash.o(i.FLASH_GetUserOptionByte), (12 bytes).
    Removing stm32f10x_flash.o(i.FLASH_GetWriteProtectionOptionByte), (12 bytes).
    Removing stm32f10x_flash.o(i.FLASH_HalfCycleAccessCmd), (24 bytes).
    Removing stm32f10x_flash.o(i.FLASH_ITConfig), (28 bytes).
    Removing stm32f10x_flash.o(i.FLASH_Lock), (16 bytes).
    Removing stm32f10x_flash.o(i.FLASH_LockBank1), (16 bytes).
    Removing stm32f10x_flash.o(i.FLASH_PrefetchBufferCmd), (24 bytes).
    Removing stm32f10x_flash.o(i.FLASH_ProgramHalfWord), (52 bytes).
    Removing stm32f10x_flash.o(i.FLASH_ProgramOptionByteData), (76 bytes).
    Removing stm32f10x_flash.o(i.FLASH_ProgramWord), (92 bytes).
    Removing stm32f10x_flash.o(i.FLASH_ReadOutProtection), (136 bytes).
    Removing stm32f10x_flash.o(i.FLASH_SetLatency), (20 bytes).
    Removing stm32f10x_flash.o(i.FLASH_Unlock), (24 bytes).
    Removing stm32f10x_flash.o(i.FLASH_UnlockBank1), (24 bytes).
    Removing stm32f10x_flash.o(i.FLASH_UserOptionByteConfig), (96 bytes).
    Removing stm32f10x_flash.o(i.FLASH_WaitForLastBank1Operation), (32 bytes).
    Removing stm32f10x_flash.o(i.FLASH_WaitForLastOperation), (32 bytes).
    Removing stm32f10x_fsmc.o(i.FSMC_ClearFlag), (42 bytes).
    Removing stm32f10x_fsmc.o(i.FSMC_ClearITPendingBit), (48 bytes).
    Removing stm32f10x_fsmc.o(i.FSMC_GetECC), (18 bytes).
    Removing stm32f10x_fsmc.o(i.FSMC_GetFlagStatus), (40 bytes).
    Removing stm32f10x_fsmc.o(i.FSMC_GetITStatus), (52 bytes).
    Removing stm32f10x_fsmc.o(i.FSMC_ITConfig), (86 bytes).
    Removing stm32f10x_fsmc.o(i.FSMC_NANDCmd), (64 bytes).
    Removing stm32f10x_fsmc.o(i.FSMC_NANDDeInit), (40 bytes).
    Removing stm32f10x_fsmc.o(i.FSMC_NANDECCCmd), (64 bytes).
    Removing stm32f10x_fsmc.o(i.FSMC_NANDInit), (104 bytes).
    Removing stm32f10x_fsmc.o(i.FSMC_NANDStructInit), (54 bytes).
    Removing stm32f10x_fsmc.o(i.FSMC_NORSRAMCmd), (36 bytes).
    Removing stm32f10x_fsmc.o(i.FSMC_NORSRAMDeInit), (48 bytes).
    Removing stm32f10x_fsmc.o(i.FSMC_NORSRAMInit), (202 bytes).
    Removing stm32f10x_fsmc.o(i.FSMC_NORSRAMStructInit), (98 bytes).
    Removing stm32f10x_fsmc.o(i.FSMC_PCCARDCmd), (36 bytes).
    Removing stm32f10x_fsmc.o(i.FSMC_PCCARDDeInit), (28 bytes).
    Removing stm32f10x_fsmc.o(i.FSMC_PCCARDInit), (104 bytes).
    Removing stm32f10x_fsmc.o(i.FSMC_PCCARDStructInit), (60 bytes).
    Removing stm32f10x_gpio.o(i.GPIO_AFIODeInit), (22 bytes).
    Removing stm32f10x_gpio.o(i.GPIO_DeInit), (216 bytes).
    Removing stm32f10x_gpio.o(i.GPIO_ETH_MediaInterfaceConfig), (12 bytes).
    Removing stm32f10x_gpio.o(i.GPIO_EventOutputCmd), (12 bytes).
    Removing stm32f10x_gpio.o(i.GPIO_EventOutputConfig), (28 bytes).
    Removing stm32f10x_gpio.o(i.GPIO_PinLockConfig), (16 bytes).
    Removing stm32f10x_gpio.o(i.GPIO_PinRemapConfig), (92 bytes).
    Removing stm32f10x_gpio.o(i.GPIO_ReadInputData), (6 bytes).
    Removing stm32f10x_gpio.o(i.GPIO_ReadInputDataBit), (14 bytes).
    Removing stm32f10x_gpio.o(i.GPIO_ReadOutputData), (6 bytes).
    Removing stm32f10x_gpio.o(i.GPIO_ReadOutputDataBit), (14 bytes).
    Removing stm32f10x_gpio.o(i.GPIO_ResetBits), (4 bytes).
    Removing stm32f10x_gpio.o(i.GPIO_SetBits), (4 bytes).
    Removing stm32f10x_gpio.o(i.GPIO_StructInit), (16 bytes).
    Removing stm32f10x_gpio.o(i.GPIO_Write), (4 bytes).
    Removing stm32f10x_i2c.o(i.I2C_ARPCmd), (24 bytes).
    Removing stm32f10x_i2c.o(i.I2C_CalculatePEC), (24 bytes).
    Removing stm32f10x_i2c.o(i.I2C_ClearFlag), (6 bytes).
    Removing stm32f10x_i2c.o(i.I2C_ClearITPendingBit), (6 bytes).
    Removing stm32f10x_i2c.o(i.I2C_DMACmd), (24 bytes).
    Removing stm32f10x_i2c.o(i.I2C_DMALastTransferCmd), (24 bytes).
    Removing stm32f10x_i2c.o(i.I2C_DeInit), (56 bytes).
    Removing stm32f10x_i2c.o(i.I2C_DualAddressCmd), (24 bytes).
    Removing stm32f10x_i2c.o(i.I2C_FastModeDutyCycleConfig), (26 bytes).
    Removing stm32f10x_i2c.o(i.I2C_GeneralCallCmd), (24 bytes).
    Removing stm32f10x_i2c.o(i.I2C_GetFlagStatus), (50 bytes).
    Removing stm32f10x_i2c.o(i.I2C_GetITStatus), (34 bytes).
    Removing stm32f10x_i2c.o(i.I2C_GetLastEvent), (14 bytes).
    Removing stm32f10x_i2c.o(i.I2C_GetPEC), (6 bytes).
    Removing stm32f10x_i2c.o(i.I2C_ITConfig), (20 bytes).
    Removing stm32f10x_i2c.o(i.I2C_NACKPositionConfig), (26 bytes).
    Removing stm32f10x_i2c.o(i.I2C_OwnAddress2Config), (16 bytes).
    Removing stm32f10x_i2c.o(i.I2C_PECPositionConfig), (26 bytes).
    Removing stm32f10x_i2c.o(i.I2C_ReadRegister), (16 bytes).
    Removing stm32f10x_i2c.o(i.I2C_SMBusAlertConfig), (26 bytes).
    Removing stm32f10x_i2c.o(i.I2C_SoftwareResetCmd), (24 bytes).
    Removing stm32f10x_i2c.o(i.I2C_StretchClockCmd), (24 bytes).
    Removing stm32f10x_i2c.o(i.I2C_StructInit), (28 bytes).
    Removing stm32f10x_i2c.o(i.I2C_TransmitPEC), (24 bytes).
    Removing stm32f10x_iwdg.o(i.IWDG_Enable), (16 bytes).
    Removing stm32f10x_iwdg.o(i.IWDG_GetFlagStatus), (20 bytes).
    Removing stm32f10x_iwdg.o(i.IWDG_ReloadCounter), (16 bytes).
    Removing stm32f10x_iwdg.o(i.IWDG_SetPrescaler), (12 bytes).
    Removing stm32f10x_iwdg.o(i.IWDG_SetReload), (12 bytes).
    Removing stm32f10x_iwdg.o(i.IWDG_WriteAccessCmd), (12 bytes).
    Removing stm32f10x_pwr.o(i.PWR_BackupAccessCmd), (12 bytes).
    Removing stm32f10x_pwr.o(i.PWR_ClearFlag), (16 bytes).
    Removing stm32f10x_pwr.o(i.PWR_DeInit), (24 bytes).
    Removing stm32f10x_pwr.o(i.PWR_EnterSTANDBYMode), (40 bytes).
    Removing stm32f10x_pwr.o(i.PWR_EnterSTOPMode), (52 bytes).
    Removing stm32f10x_pwr.o(i.PWR_GetFlagStatus), (20 bytes).
    Removing stm32f10x_pwr.o(i.PWR_PVDCmd), (12 bytes).
    Removing stm32f10x_pwr.o(i.PWR_PVDLevelConfig), (20 bytes).
    Removing stm32f10x_pwr.o(i.PWR_WakeUpPinCmd), (12 bytes).
    Removing stm32f10x_rcc.o(i.RCC_ADCCLKConfig), (20 bytes).
    Removing stm32f10x_rcc.o(i.RCC_AHBPeriphClockCmd), (28 bytes).
    Removing stm32f10x_rcc.o(i.RCC_APB1PeriphResetCmd), (28 bytes).
    Removing stm32f10x_rcc.o(i.RCC_APB2PeriphResetCmd), (28 bytes).
    Removing stm32f10x_rcc.o(i.RCC_AdjustHSICalibrationValue), (20 bytes).
    Removing stm32f10x_rcc.o(i.RCC_BackupResetCmd), (12 bytes).
    Removing stm32f10x_rcc.o(i.RCC_ClearFlag), (16 bytes).
    Removing stm32f10x_rcc.o(i.RCC_ClearITPendingBit), (12 bytes).
    Removing stm32f10x_rcc.o(i.RCC_ClockSecuritySystemCmd), (12 bytes).
    Removing stm32f10x_rcc.o(i.RCC_DeInit), (64 bytes).
    Removing stm32f10x_rcc.o(i.RCC_GetFlagStatus), (48 bytes).
    Removing stm32f10x_rcc.o(i.RCC_GetITStatus), (20 bytes).
    Removing stm32f10x_rcc.o(i.RCC_GetSYSCLKSource), (16 bytes).
    Removing stm32f10x_rcc.o(i.RCC_HCLKConfig), (20 bytes).
    Removing stm32f10x_rcc.o(i.RCC_HSEConfig), (56 bytes).
    Removing stm32f10x_rcc.o(i.RCC_HSICmd), (12 bytes).
    Removing stm32f10x_rcc.o(i.RCC_ITConfig), (28 bytes).
    Removing stm32f10x_rcc.o(i.RCC_LSEConfig), (40 bytes).
    Removing stm32f10x_rcc.o(i.RCC_LSICmd), (12 bytes).
    Removing stm32f10x_rcc.o(i.RCC_MCOConfig), (12 bytes).
    Removing stm32f10x_rcc.o(i.RCC_PCLK1Config), (20 bytes).
    Removing stm32f10x_rcc.o(i.RCC_PCLK2Config), (20 bytes).
    Removing stm32f10x_rcc.o(i.RCC_PLLCmd), (12 bytes).
    Removing stm32f10x_rcc.o(i.RCC_PLLConfig), (20 bytes).
    Removing stm32f10x_rcc.o(i.RCC_RTCCLKCmd), (12 bytes).
    Removing stm32f10x_rcc.o(i.RCC_RTCCLKConfig), (16 bytes).
    Removing stm32f10x_rcc.o(i.RCC_SYSCLKConfig), (20 bytes).
    Removing stm32f10x_rcc.o(i.RCC_USBCLKConfig), (12 bytes).
    Removing stm32f10x_rcc.o(i.RCC_WaitForHSEStartUp), (48 bytes).
    Removing stm32f10x_rtc.o(i.RTC_ClearFlag), (16 bytes).
    Removing stm32f10x_rtc.o(i.RTC_ClearITPendingBit), (16 bytes).
    Removing stm32f10x_rtc.o(i.RTC_EnterConfigMode), (16 bytes).
    Removing stm32f10x_rtc.o(i.RTC_ExitConfigMode), (16 bytes).
    Removing stm32f10x_rtc.o(i.RTC_GetCounter), (20 bytes).
    Removing stm32f10x_rtc.o(i.RTC_GetDivider), (24 bytes).
    Removing stm32f10x_rtc.o(i.RTC_GetFlagStatus), (20 bytes).
    Removing stm32f10x_rtc.o(i.RTC_GetITStatus), (32 bytes).
    Removing stm32f10x_rtc.o(i.RTC_ITConfig), (28 bytes).
    Removing stm32f10x_rtc.o(i.RTC_SetAlarm), (32 bytes).
    Removing stm32f10x_rtc.o(i.RTC_SetCounter), (32 bytes).
    Removing stm32f10x_rtc.o(i.RTC_SetPrescaler), (32 bytes).
    Removing stm32f10x_rtc.o(i.RTC_WaitForLastTask), (16 bytes).
    Removing stm32f10x_rtc.o(i.RTC_WaitForSynchro), (24 bytes).
    Removing stm32f10x_sdio.o(i.SDIO_CEATAITCmd), (16 bytes).
    Removing stm32f10x_sdio.o(i.SDIO_ClearFlag), (12 bytes).
    Removing stm32f10x_sdio.o(i.SDIO_ClearITPendingBit), (12 bytes).
    Removing stm32f10x_sdio.o(i.SDIO_ClockCmd), (12 bytes).
    Removing stm32f10x_sdio.o(i.SDIO_CmdStructInit), (14 bytes).
    Removing stm32f10x_sdio.o(i.SDIO_CommandCompletionCmd), (12 bytes).
    Removing stm32f10x_sdio.o(i.SDIO_DMACmd), (12 bytes).
    Removing stm32f10x_sdio.o(i.SDIO_DataConfig), (44 bytes).
    Removing stm32f10x_sdio.o(i.SDIO_DataStructInit), (20 bytes).
    Removing stm32f10x_sdio.o(i.SDIO_DeInit), (36 bytes).
    Removing stm32f10x_sdio.o(i.SDIO_GetCommandResponse), (12 bytes).
    Removing stm32f10x_sdio.o(i.SDIO_GetDataCounter), (12 bytes).
    Removing stm32f10x_sdio.o(i.SDIO_GetFIFOCount), (12 bytes).
    Removing stm32f10x_sdio.o(i.SDIO_GetFlagStatus), (20 bytes).
    Removing stm32f10x_sdio.o(i.SDIO_GetITStatus), (20 bytes).
    Removing stm32f10x_sdio.o(i.SDIO_GetPowerState), (16 bytes).
    Removing stm32f10x_sdio.o(i.SDIO_GetResponse), (20 bytes).
    Removing stm32f10x_sdio.o(i.SDIO_ITConfig), (28 bytes).
    Removing stm32f10x_sdio.o(i.SDIO_Init), (44 bytes).
    Removing stm32f10x_sdio.o(i.SDIO_ReadData), (12 bytes).
    Removing stm32f10x_sdio.o(i.SDIO_SendCEATACmd), (12 bytes).
    Removing stm32f10x_sdio.o(i.SDIO_SendCommand), (40 bytes).
    Removing stm32f10x_sdio.o(i.SDIO_SendSDIOSuspendCmd), (12 bytes).
    Removing stm32f10x_sdio.o(i.SDIO_SetPowerState), (24 bytes).
    Removing stm32f10x_sdio.o(i.SDIO_SetSDIOOperation), (12 bytes).
    Removing stm32f10x_sdio.o(i.SDIO_SetSDIOReadWaitMode), (12 bytes).
    Removing stm32f10x_sdio.o(i.SDIO_StartSDIOReadWait), (12 bytes).
    Removing stm32f10x_sdio.o(i.SDIO_StopSDIOReadWait), (12 bytes).
    Removing stm32f10x_sdio.o(i.SDIO_StructInit), (16 bytes).
    Removing stm32f10x_sdio.o(i.SDIO_WriteData), (12 bytes).
    Removing stm32f10x_spi.o(i.I2S_Cmd), (24 bytes).
    Removing stm32f10x_spi.o(i.I2S_Init), (168 bytes).
    Removing stm32f10x_spi.o(i.I2S_StructInit), (18 bytes).
    Removing stm32f10x_spi.o(i.SPI_BiDirectionalLineConfig), (26 bytes).
    Removing stm32f10x_spi.o(i.SPI_CalculateCRC), (24 bytes).
    Removing stm32f10x_spi.o(i.SPI_Cmd), (24 bytes).
    Removing stm32f10x_spi.o(i.SPI_DataSizeConfig), (16 bytes).
    Removing stm32f10x_spi.o(i.SPI_GetCRC), (12 bytes).
    Removing stm32f10x_spi.o(i.SPI_GetCRCPolynomial), (4 bytes).
    Removing stm32f10x_spi.o(i.SPI_I2S_ClearFlag), (6 bytes).
    Removing stm32f10x_spi.o(i.SPI_I2S_ClearITPendingBit), (14 bytes).
    Removing stm32f10x_spi.o(i.SPI_I2S_DMACmd), (20 bytes).
    Removing stm32f10x_spi.o(i.SPI_I2S_DeInit), (100 bytes).
    Removing stm32f10x_spi.o(i.SPI_I2S_GetFlagStatus), (14 bytes).
    Removing stm32f10x_spi.o(i.SPI_I2S_GetITStatus), (44 bytes).
    Removing stm32f10x_spi.o(i.SPI_I2S_ITConfig), (28 bytes).
    Removing stm32f10x_spi.o(i.SPI_I2S_ReceiveData), (4 bytes).
    Removing stm32f10x_spi.o(i.SPI_I2S_SendData), (4 bytes).
    Removing stm32f10x_spi.o(i.SPI_Init), (56 bytes).
    Removing stm32f10x_spi.o(i.SPI_NSSInternalSoftwareConfig), (28 bytes).
    Removing stm32f10x_spi.o(i.SPI_SSOutputCmd), (24 bytes).
    Removing stm32f10x_spi.o(i.SPI_StructInit), (24 bytes).
    Removing stm32f10x_spi.o(i.SPI_TransmitCRC), (10 bytes).
    Removing stm32f10x_tim.o(i.TI1_Config), (116 bytes).
    Removing stm32f10x_tim.o(i.TI2_Config), (124 bytes).
    Removing stm32f10x_tim.o(i.TI3_Config), (120 bytes).
    Removing stm32f10x_tim.o(i.TI4_Config), (124 bytes).
    Removing stm32f10x_tim.o(i.TIM_ARRPreloadConfig), (24 bytes).
    Removing stm32f10x_tim.o(i.TIM_BDTRConfig), (34 bytes).
    Removing stm32f10x_tim.o(i.TIM_BDTRStructInit), (18 bytes).
    Removing stm32f10x_tim.o(i.TIM_CCPreloadControl), (24 bytes).
    Removing stm32f10x_tim.o(i.TIM_CCxCmd), (22 bytes).
    Removing stm32f10x_tim.o(i.TIM_CCxNCmd), (22 bytes).
    Removing stm32f10x_tim.o(i.TIM_ClearFlag), (6 bytes).
    Removing stm32f10x_tim.o(i.TIM_ClearITPendingBit), (6 bytes).
    Removing stm32f10x_tim.o(i.TIM_ClearOC1Ref), (12 bytes).
    Removing stm32f10x_tim.o(i.TIM_ClearOC2Ref), (20 bytes).
    Removing stm32f10x_tim.o(i.TIM_ClearOC3Ref), (12 bytes).
    Removing stm32f10x_tim.o(i.TIM_ClearOC4Ref), (20 bytes).
    Removing stm32f10x_tim.o(i.TIM_Cmd), (24 bytes).
    Removing stm32f10x_tim.o(i.TIM_CounterModeConfig), (12 bytes).
    Removing stm32f10x_tim.o(i.TIM_CtrlPWMOutputs), (28 bytes).
    Removing stm32f10x_tim.o(i.TIM_DMACmd), (20 bytes).
    Removing stm32f10x_tim.o(i.TIM_DMAConfig), (8 bytes).
    Removing stm32f10x_tim.o(i.TIM_DeInit), (528 bytes).
    Removing stm32f10x_tim.o(i.TIM_ETRClockMode1Config), (32 bytes).
    Removing stm32f10x_tim.o(i.TIM_ETRClockMode2Config), (20 bytes).
    Removing stm32f10x_tim.o(i.TIM_ETRConfig), (24 bytes).
    Removing stm32f10x_tim.o(i.TIM_EncoderInterfaceConfig), (50 bytes).
    Removing stm32f10x_tim.o(i.TIM_ForcedOC1Config), (12 bytes).
    Removing stm32f10x_tim.o(i.TIM_ForcedOC2Config), (20 bytes).
    Removing stm32f10x_tim.o(i.TIM_ForcedOC3Config), (12 bytes).
    Removing stm32f10x_tim.o(i.TIM_ForcedOC4Config), (20 bytes).
    Removing stm32f10x_tim.o(i.TIM_GenerateEvent), (4 bytes).
    Removing stm32f10x_tim.o(i.TIM_GetCapture1), (4 bytes).
    Removing stm32f10x_tim.o(i.TIM_GetCapture2), (4 bytes).
    Removing stm32f10x_tim.o(i.TIM_GetCapture3), (4 bytes).
    Removing stm32f10x_tim.o(i.TIM_GetCapture4), (6 bytes).
    Removing stm32f10x_tim.o(i.TIM_GetCounter), (4 bytes).
    Removing stm32f10x_tim.o(i.TIM_GetFlagStatus), (14 bytes).
    Removing stm32f10x_tim.o(i.TIM_GetITStatus), (24 bytes).
    Removing stm32f10x_tim.o(i.TIM_GetPrescaler), (4 bytes).
    Removing stm32f10x_tim.o(i.TIM_ICInit), (140 bytes).
    Removing stm32f10x_tim.o(i.TIM_ICStructInit), (16 bytes).
    Removing stm32f10x_tim.o(i.TIM_ITConfig), (20 bytes).
    Removing stm32f10x_tim.o(i.TIM_ITRxExternalClockConfig), (20 bytes).
    Removing stm32f10x_tim.o(i.TIM_InternalClockConfig), (10 bytes).
    Removing stm32f10x_tim.o(i.TIM_OC1FastConfig), (12 bytes).
    Removing stm32f10x_tim.o(i.TIM_OC1Init), (136 bytes).
    Removing stm32f10x_tim.o(i.TIM_OC1NPolarityConfig), (12 bytes).
    Removing stm32f10x_tim.o(i.TIM_OC1PolarityConfig), (12 bytes).
    Removing stm32f10x_tim.o(i.TIM_OC1PreloadConfig), (12 bytes).
    Removing stm32f10x_tim.o(i.TIM_OC2FastConfig), (20 bytes).
    Removing stm32f10x_tim.o(i.TIM_OC2Init), (136 bytes).
    Removing stm32f10x_tim.o(i.TIM_OC2NPolarityConfig), (20 bytes).
    Removing stm32f10x_tim.o(i.TIM_OC2PolarityConfig), (20 bytes).
    Removing stm32f10x_tim.o(i.TIM_OC2PreloadConfig), (20 bytes).
    Removing stm32f10x_tim.o(i.TIM_OC3FastConfig), (12 bytes).
    Removing stm32f10x_tim.o(i.TIM_OC3Init), (132 bytes).
    Removing stm32f10x_tim.o(i.TIM_OC3NPolarityConfig), (20 bytes).
    Removing stm32f10x_tim.o(i.TIM_OC3PolarityConfig), (20 bytes).
    Removing stm32f10x_tim.o(i.TIM_OC3PreloadConfig), (12 bytes).
    Removing stm32f10x_tim.o(i.TIM_OC4FastConfig), (20 bytes).
    Removing stm32f10x_tim.o(i.TIM_OC4Init), (104 bytes).
    Removing stm32f10x_tim.o(i.TIM_OC4PolarityConfig), (20 bytes).
    Removing stm32f10x_tim.o(i.TIM_OC4PreloadConfig), (20 bytes).
    Removing stm32f10x_tim.o(i.TIM_OCStructInit), (20 bytes).
    Removing stm32f10x_tim.o(i.TIM_PWMIConfig), (110 bytes).
    Removing stm32f10x_tim.o(i.TIM_PrescalerConfig), (6 bytes).
    Removing stm32f10x_tim.o(i.TIM_SelectCCDMA), (24 bytes).
    Removing stm32f10x_tim.o(i.TIM_SelectCOM), (24 bytes).
    Removing stm32f10x_tim.o(i.TIM_SelectHallSensor), (24 bytes).
    Removing stm32f10x_tim.o(i.TIM_SelectInputTrigger), (12 bytes).
    Removing stm32f10x_tim.o(i.TIM_SelectMasterSlaveMode), (16 bytes).
    Removing stm32f10x_tim.o(i.TIM_SelectOCxM), (76 bytes).
    Removing stm32f10x_tim.o(i.TIM_SelectOnePulseMode), (16 bytes).
    Removing stm32f10x_tim.o(i.TIM_SelectOutputTrigger), (16 bytes).
    Removing stm32f10x_tim.o(i.TIM_SelectSlaveMode), (16 bytes).
    Removing stm32f10x_tim.o(i.TIM_SetAutoreload), (4 bytes).
    Removing stm32f10x_tim.o(i.TIM_SetClockDivision), (16 bytes).
    Removing stm32f10x_tim.o(i.TIM_SetCompare1), (4 bytes).
    Removing stm32f10x_tim.o(i.TIM_SetCompare2), (4 bytes).
    Removing stm32f10x_tim.o(i.TIM_SetCompare3), (4 bytes).
    Removing stm32f10x_tim.o(i.TIM_SetCompare4), (6 bytes).
    Removing stm32f10x_tim.o(i.TIM_SetCounter), (4 bytes).
    Removing stm32f10x_tim.o(i.TIM_SetIC1Prescaler), (16 bytes).
    Removing stm32f10x_tim.o(i.TIM_SetIC2Prescaler), (24 bytes).
    Removing stm32f10x_tim.o(i.TIM_SetIC3Prescaler), (16 bytes).
    Removing stm32f10x_tim.o(i.TIM_SetIC4Prescaler), (24 bytes).
    Removing stm32f10x_tim.o(i.TIM_TIxExternalClockConfig), (48 bytes).
    Removing stm32f10x_tim.o(i.TIM_TimeBaseInit), (156 bytes).
    Removing stm32f10x_tim.o(i.TIM_TimeBaseStructInit), (18 bytes).
    Removing stm32f10x_tim.o(i.TIM_UpdateDisableConfig), (24 bytes).
    Removing stm32f10x_tim.o(i.TIM_UpdateRequestConfig), (24 bytes).
    Removing stm32f10x_usart.o(i.USART_ClearFlag), (8 bytes).
    Removing stm32f10x_usart.o(i.USART_ClearITPendingBit), (16 bytes).
    Removing stm32f10x_usart.o(i.USART_ClockInit), (30 bytes).
    Removing stm32f10x_usart.o(i.USART_ClockStructInit), (12 bytes).
    Removing stm32f10x_usart.o(i.USART_DMACmd), (20 bytes).
    Removing stm32f10x_usart.o(i.USART_DeInit), (164 bytes).
    Removing stm32f10x_usart.o(i.USART_GetITStatus), (64 bytes).
    Removing stm32f10x_usart.o(i.USART_HalfDuplexCmd), (24 bytes).
    Removing stm32f10x_usart.o(i.USART_ITConfig), (54 bytes).
    Removing stm32f10x_usart.o(i.USART_IrDACmd), (24 bytes).
    Removing stm32f10x_usart.o(i.USART_IrDAConfig), (16 bytes).
    Removing stm32f10x_usart.o(i.USART_LINBreakDetectLengthConfig), (16 bytes).
    Removing stm32f10x_usart.o(i.USART_LINCmd), (24 bytes).
    Removing stm32f10x_usart.o(i.USART_OneBitMethodCmd), (24 bytes).
    Removing stm32f10x_usart.o(i.USART_OverSampling8Cmd), (24 bytes).
    Removing stm32f10x_usart.o(i.USART_ReceiveData), (8 bytes).
    Removing stm32f10x_usart.o(i.USART_ReceiverWakeUpCmd), (24 bytes).
    Removing stm32f10x_usart.o(i.USART_SendBreak), (10 bytes).
    Removing stm32f10x_usart.o(i.USART_SetAddress), (16 bytes).
    Removing stm32f10x_usart.o(i.USART_SetGuardTime), (16 bytes).
    Removing stm32f10x_usart.o(i.USART_SetPrescaler), (16 bytes).
    Removing stm32f10x_usart.o(i.USART_SmartCardCmd), (24 bytes).
    Removing stm32f10x_usart.o(i.USART_SmartCardNACKCmd), (24 bytes).
    Removing stm32f10x_usart.o(i.USART_StructInit), (22 bytes).
    Removing stm32f10x_usart.o(i.USART_WakeUpConfig), (16 bytes).
    Removing stm32f10x_wwdg.o(i.WWDG_ClearFlag), (12 bytes).
    Removing stm32f10x_wwdg.o(i.WWDG_DeInit), (24 bytes).
    Removing stm32f10x_wwdg.o(i.WWDG_Enable), (16 bytes).
    Removing stm32f10x_wwdg.o(i.WWDG_EnableIT), (12 bytes).
    Removing stm32f10x_wwdg.o(i.WWDG_GetFlagStatus), (12 bytes).
    Removing stm32f10x_wwdg.o(i.WWDG_SetCounter), (16 bytes).
    Removing stm32f10x_wwdg.o(i.WWDG_SetPrescaler), (20 bytes).
    Removing stm32f10x_wwdg.o(i.WWDG_SetWindowValue), (32 bytes).
    Removing delay.o(i.Delay_ms), (24 bytes).
    Removing delay.o(i.Delay_s), (24 bytes).
    Removing delay.o(i.Delay_us), (32 bytes).
    Removing led.o(i.LED1_OFF), (12 bytes).
    Removing led.o(i.LED1_ON), (12 bytes).
    Removing led.o(i.LED1_Turn), (44 bytes).
    Removing led.o(i.LED2_OFF), (12 bytes).
    Removing led.o(i.LED2_ON), (12 bytes).
    Removing led.o(i.LED2_Turn), (44 bytes).
    Removing led.o(i.LED_Init), (52 bytes).
    Removing oled.o(i.OLED_ShowBinNum), (58 bytes).
    Removing oled.o(i.OLED_ShowHexNum), (80 bytes).
    Removing oled.o(i.OLED_ShowSignedNum), (98 bytes).
    Removing serial.o(i.Serial_Pow), (16 bytes).
    Removing serial.o(i.Serial_Printf), (28 bytes).
    Removing serial.o(i.Serial_SendArray), (26 bytes).
    Removing serial.o(i.Serial_SendNumber), (54 bytes).
    Removing mpu6050.o(i.MPU6050_GetID), (6 bytes).
    Removing main.o(.data), (2 bytes).
    Removing nnom_local.o(i.alg_deconv2d_calculate_position), (156 bytes).
    Removing nnom_local.o(i.local_add_q7), (58 bytes).
    Removing nnom_local.o(i.local_adv_relu_q7), (44 bytes).
    Removing nnom_local.o(i.local_avepool_q7_CHW), (192 bytes).
    Removing nnom_local.o(i.local_avepool_q7_HWC), (182 bytes).
    Removing nnom_local.o(i.local_conv_trans_HWC_q7_nonsquare), (384 bytes).
    Removing nnom_local.o(i.local_convolve_CHW_q7_nonsquare), (342 bytes).
    Removing nnom_local.o(i.local_cropping_CHW_q7), (86 bytes).
    Removing nnom_local.o(i.local_cropping_HWC_q7), (64 bytes).
    Removing nnom_local.o(i.local_depthwise_separable_conv_CHW_q7_nonsquare), (442 bytes).
    Removing nnom_local.o(i.local_depthwise_separable_conv_HWC_q7_nonsquare), (420 bytes).
    Removing nnom_local.o(i.local_dot_q7), (76 bytes).
    Removing nnom_local.o(i.local_dot_q7_opt), (480 bytes).
    Removing nnom_local.o(i.local_fully_connected_q7), (152 bytes).
    Removing nnom_local.o(i.local_hard_sigmoid_q7), (108 bytes).
    Removing nnom_local.o(i.local_hard_tanh_q7), (106 bytes).
    Removing nnom_local.o(i.local_leaky_relu_q7), (32 bytes).
    Removing nnom_local.o(i.local_maxpool_q7_CHW), (176 bytes).
    Removing nnom_local.o(i.local_mult_q7), (58 bytes).
    Removing nnom_local.o(i.local_multiple_add_q7), (70 bytes).
    Removing nnom_local.o(i.local_multiple_mult_q7), (70 bytes).
    Removing nnom_local.o(i.local_multiple_sub_q7), (74 bytes).
    Removing nnom_local.o(i.local_q15_to_q7), (22 bytes).
    Removing nnom_local.o(i.local_q7_to_q15), (88 bytes).
    Removing nnom_local.o(i.local_q7_to_q15_no_shift), (86 bytes).
    Removing nnom_local.o(i.local_sigmoid_q7), (76 bytes).
    Removing nnom_local.o(i.local_sub_q7), (58 bytes).
    Removing nnom_local.o(i.local_sumpool_q7_CHW), (186 bytes).
    Removing nnom_local.o(i.local_sumpool_q7_HWC), (176 bytes).
    Removing nnom_local.o(i.local_tanh_q7), (92 bytes).
    Removing nnom_local.o(i.local_up_sampling_q7_CHW), (152 bytes).
    Removing nnom_local.o(i.local_up_sampling_q7_HWC), (142 bytes).
    Removing nnom_local.o(i.local_zero_padding_CHW_q7), (132 bytes).
    Removing nnom_local.o(i.local_zero_padding_HWC_q7), (110 bytes).
    Removing nnom_local.o(.constdata), (512 bytes).
    Removing nnom_local_q15.o(i.__NNOM_USAT), (24 bytes).
    Removing nnom_local_q15.o(i.alg_deconv2d_calculate_position), (156 bytes).
    Removing nnom_local_q15.o(i.local_1_minor_z_q15), (98 bytes).
    Removing nnom_local_q15.o(i.local_activation_q15), (86 bytes).
    Removing nnom_local_q15.o(i.local_add_q15), (60 bytes).
    Removing nnom_local_q15.o(i.local_adv_relu_q15), (52 bytes).
    Removing nnom_local_q15.o(i.local_avepool_q15_CHW), (192 bytes).
    Removing nnom_local_q15.o(i.local_avepool_q15_HWC), (182 bytes).
    Removing nnom_local_q15.o(i.local_conv_trans_HWC_q15_nonsquare), (428 bytes).
    Removing nnom_local_q15.o(i.local_convolve_CHW_q15_nonsquare), (374 bytes).
    Removing nnom_local_q15.o(i.local_cropping_CHW_q15), (108 bytes).
    Removing nnom_local_q15.o(i.local_cropping_HWC_q15), (78 bytes).
    Removing nnom_local_q15.o(i.local_depthwise_separable_conv_CHW_q15_nonsquare), (406 bytes).
    Removing nnom_local_q15.o(i.local_depthwise_separable_conv_HWC_q15_nonsquare), (378 bytes).
    Removing nnom_local_q15.o(i.local_dot_q15), (88 bytes).
    Removing nnom_local_q15.o(i.local_dot_q15_opt), (528 bytes).
    Removing nnom_local_q15.o(i.local_fully_connected_mat_q7_vec_q15), (190 bytes).
    Removing nnom_local_q15.o(i.local_fully_connected_mat_q7_vec_q15_opt), (622 bytes).
    Removing nnom_local_q15.o(i.local_hard_sigmoid_q15), (112 bytes).
    Removing nnom_local_q15.o(i.local_hard_tanh_q15), (124 bytes).
    Removing nnom_local_q15.o(i.local_leaky_relu_q15), (36 bytes).
    Removing nnom_local_q15.o(i.local_maxpool_q15_CHW), (184 bytes).
    Removing nnom_local_q15.o(i.local_maxpool_q15_HWC), (180 bytes).
    Removing nnom_local_q15.o(i.local_mult_q15), (60 bytes).
    Removing nnom_local_q15.o(i.local_multiple_add_q15), (72 bytes).
    Removing nnom_local_q15.o(i.local_multiple_mult_q15), (96 bytes).
    Removing nnom_local_q15.o(i.local_multiple_sub_q15), (78 bytes).
    Removing nnom_local_q15.o(i.local_sigmoid_q15), (12 bytes).
    Removing nnom_local_q15.o(i.local_softmax_q15), (156 bytes).
    Removing nnom_local_q15.o(i.local_sub_q15), (60 bytes).
    Removing nnom_local_q15.o(i.local_sumpool_q15_CHW), (196 bytes).
    Removing nnom_local_q15.o(i.local_sumpool_q15_HWC), (180 bytes).
    Removing nnom_local_q15.o(i.local_tanh_q15), (12 bytes).
    Removing nnom_local_q15.o(i.local_up_sampling_q15_CHW), (174 bytes).
    Removing nnom_local_q15.o(i.local_up_sampling_q15_HWC), (158 bytes).
    Removing nnom_local_q15.o(i.local_zero_padding_CHW_q15), (156 bytes).
    Removing nnom_local_q15.o(i.local_zero_padding_HWC_q15), (128 bytes).
    Removing nnom_local_q15.o(.constdata), (1024 bytes).
    Removing nnom.o(i.io_list_delete), (52 bytes).
    Removing nnom.o(i.io_tensor_delete), (20 bytes).
    Removing nnom.o(i.layer_delete), (64 bytes).
    Removing nnom.o(i.model_delete), (64 bytes).
    Removing nnom.o(i.model_delete_callback), (6 bytes).
    Removing nnom.o(i.model_set_callback), (22 bytes).
    Removing nnom.o(i.nnom_io_length), (20 bytes).
    Removing nnom.o(i.nnom_mem_stat), (12 bytes).
    Removing nnom.o(i.sequencial_compile), (26 bytes).
    Removing nnom_layers.o(i.border), (30 bytes).
    Removing nnom_layers.o(i.io_add_aux), (46 bytes).
    Removing nnom_layers.o(i.shape_size), (20 bytes).
    Removing nnom_tensor.o(i.chw2hwc_q7), (76 bytes).
    Removing nnom_tensor.o(i.hwc2chw_q7), (70 bytes).
    Removing nnom_tensor.o(i.tensor_chw2hwc_q7), (92 bytes).
    Removing nnom_tensor.o(i.tensor_hwc2chw_q7), (70 bytes).
    Removing nnom_tensor.o(i.tensor_size_byte), (18 bytes).
    Removing nnom_utils.o(i._predict_create_instance), (114 bytes).
    Removing nnom_utils.o(i._predict_delete_instance), (32 bytes).
    Removing nnom_utils.o(i.layer_stat), (364 bytes).
    Removing nnom_utils.o(i.model_io_format), (436 bytes).
    Removing nnom_utils.o(i.model_stat), (436 bytes).
    Removing nnom_utils.o(i.nnom_predict), (160 bytes).
    Removing nnom_utils.o(i.prediction_create), (40 bytes).
    Removing nnom_utils.o(i.prediction_delete), (4 bytes).
    Removing nnom_utils.o(i.prediction_end), (12 bytes).
    Removing nnom_utils.o(i.prediction_matrix), (212 bytes).
    Removing nnom_utils.o(i.prediction_run), (228 bytes).
    Removing nnom_utils.o(i.prediction_summary), (416 bytes).
    Removing nnom_utils.o(i.prediction_top_k), (144 bytes).
    Removing nnom_activation.o(i.Activation), (88 bytes).
    Removing nnom_activation.o(i.AdvReLU), (22 bytes).
    Removing nnom_activation.o(i.LeakyReLU), (22 bytes).
    Removing nnom_activation.o(i.ReLU), (22 bytes).
    Removing nnom_activation.o(i.Sigmoid), (22 bytes).
    Removing nnom_activation.o(i.TanH), (22 bytes).
    Removing nnom_activation.o(i.act_adv_relu), (60 bytes).
    Removing nnom_activation.o(i.act_delete), (4 bytes).
    Removing nnom_activation.o(i.act_hard_sigmoid), (32 bytes).
    Removing nnom_activation.o(i.act_hard_tanh), (32 bytes).
    Removing nnom_activation.o(i.act_leaky_relu), (48 bytes).
    Removing nnom_activation.o(i.act_sigmoid), (32 bytes).
    Removing nnom_activation.o(i.act_tanh), (32 bytes).
    Removing nnom_activation.o(i.act_tensor_run), (6 bytes).
    Removing nnom_activation.o(i.activation_free), (16 bytes).
    Removing nnom_activation.o(i.activation_run), (10 bytes).
    Removing nnom_activation.o(i.adv_relu_run), (268 bytes).
    Removing nnom_activation.o(i.hard_sigmoid_run), (52 bytes).
    Removing nnom_activation.o(i.hard_tanh_run), (52 bytes).
    Removing nnom_activation.o(i.leaky_relu_run), (54 bytes).
    Removing nnom_activation.o(i.sigmoid_run), (68 bytes).
    Removing nnom_activation.o(i.tanh_run), (68 bytes).
    Removing nnom_avgpool.o(i.AvgPool), (44 bytes).
    Removing nnom_avgpool.o(i.avgpool_build), (10 bytes).
    Removing nnom_avgpool.o(i.avgpool_run), (164 bytes).
    Removing nnom_avgpool.o(i.avgpool_s), (104 bytes).
    Removing nnom_baselayer.o(i.BaseLayer), (72 bytes).
    Removing nnom_baselayer.o(i.baselayer_s), (16 bytes).
    Removing nnom_baselayer.o(i.default_run), (42 bytes).
    Removing nnom_concat.o(i.Concat), (80 bytes).
    Removing nnom_concat.o(i.concat_build), (224 bytes).
    Removing nnom_concat.o(i.concat_run), (124 bytes).
    Removing nnom_concat.o(i.concat_s), (20 bytes).
    Removing nnom_conv2d.o(i.Conv2D), (308 bytes).
    Removing nnom_conv2d_trans.o(i.Conv2DTrans), (76 bytes).
    Removing nnom_conv2d_trans.o(i.conv2d_trans_build), (246 bytes).
    Removing nnom_conv2d_trans.o(i.conv2d_trans_run), (118 bytes).
    Removing nnom_conv2d_trans.o(i.conv2d_trans_s), (32 bytes).
    Removing nnom_conv2d_trans.o(i.conv_trans_output_length), (20 bytes).
    Removing nnom_cropping.o(i.Cropping), (32 bytes).
    Removing nnom_cropping.o(i.cropping_build), (134 bytes).
    Removing nnom_cropping.o(i.cropping_run), (62 bytes).
    Removing nnom_cropping.o(i.cropping_s), (20 bytes).
    Removing nnom_dense.o(i.Dense), (236 bytes).
    Removing nnom_dw_conv2d.o(i.DW_Conv2D), (76 bytes).
    Removing nnom_dw_conv2d.o(i.dw_conv2d_build), (258 bytes).
    Removing nnom_dw_conv2d.o(i.dw_conv2d_run), (114 bytes).
    Removing nnom_dw_conv2d.o(i.dw_conv2d_s), (32 bytes).
    Removing nnom_global_pool.o(i.GlobalAvgPool), (64 bytes).
    Removing nnom_global_pool.o(i.GlobalMaxPool), (56 bytes).
    Removing nnom_global_pool.o(i.GlobalSumPool), (64 bytes).
    Removing nnom_global_pool.o(i.global_avgpool_s), (22 bytes).
    Removing nnom_global_pool.o(i.global_maxpool_s), (22 bytes).
    Removing nnom_global_pool.o(i.global_pool_build), (240 bytes).
    Removing nnom_global_pool.o(i.global_sumpool_s), (22 bytes).
    Removing nnom_gru_cell.o(i.gru_cell_build), (116 bytes).
    Removing nnom_gru_cell.o(i.gru_cell_free), (4 bytes).
    Removing nnom_gru_cell.o(i.gru_cell_run), (384 bytes).
    Removing nnom_gru_cell.o(i.gru_cell_s), (72 bytes).
    Removing nnom_input.o(i.Input), (152 bytes).
    Removing nnom_lambda.o(i.Lambda), (108 bytes).
    Removing nnom_lambda.o(i.lambda_s), (20 bytes).
    Removing nnom_lstm_cell.o(i.lstm_cell_free), (4 bytes).
    Removing nnom_lstm_cell.o(i.lstm_cell_q7_q15_build), (112 bytes).
    Removing nnom_lstm_cell.o(i.lstm_cell_q7_q15_run), (362 bytes).
    Removing nnom_lstm_cell.o(i.lstm_cell_s), (76 bytes).
    Removing nnom_matrix.o(i.Add), (32 bytes).
    Removing nnom_matrix.o(i.Mult), (32 bytes).
    Removing nnom_matrix.o(i.Sub), (32 bytes).
    Removing nnom_matrix.o(i._same_shape_matrix_layer), (60 bytes).
    Removing nnom_matrix.o(i.add_run), (106 bytes).
    Removing nnom_matrix.o(i.add_s), (20 bytes).
    Removing nnom_matrix.o(i.matrix_build), (84 bytes).
    Removing nnom_matrix.o(i.mult_run), (106 bytes).
    Removing nnom_matrix.o(i.mult_s), (20 bytes).
    Removing nnom_matrix.o(i.sub_run), (106 bytes).
    Removing nnom_matrix.o(i.sub_s), (20 bytes).
    Removing nnom_output.o(i.Output), (48 bytes).
    Removing nnom_reshape.o(i.reshape_build), (64 bytes).
    Removing nnom_reshape.o(i.reshape_run), (4 bytes).
    Removing nnom_reshape.o(i.reshape_s), (88 bytes).
    Removing nnom_rnn.o(i.rnn_build), (214 bytes).
    Removing nnom_rnn.o(i.rnn_free), (24 bytes).
    Removing nnom_rnn.o(i.rnn_run), (190 bytes).
    Removing nnom_rnn.o(i.rnn_s), (128 bytes).
    Removing nnom_simple_cell.o(i.simple_cell_build), (114 bytes).
    Removing nnom_simple_cell.o(i.simple_cell_free), (4 bytes).
    Removing nnom_simple_cell.o(i.simple_cell_run), (152 bytes).
    Removing nnom_simple_cell.o(i.simple_cell_s), (84 bytes).
    Removing nnom_sumpool.o(i.SumPool), (44 bytes).
    Removing nnom_sumpool.o(i.sumpool_build), (28 bytes).
    Removing nnom_sumpool.o(i.sumpool_run), (90 bytes).
    Removing nnom_sumpool.o(i.sumpool_s), (104 bytes).
    Removing nnom_upsample.o(i.UpSample), (84 bytes).
    Removing nnom_upsample.o(i.upsample_build), (114 bytes).
    Removing nnom_upsample.o(i.upsample_run), (58 bytes).
    Removing nnom_upsample.o(i.upsample_s), (30 bytes).
    Removing nnom_zero_padding.o(i.ZeroPadding), (80 bytes).
    Removing nnom_zero_padding.o(i.zero_padding_build), (138 bytes).
    Removing nnom_zero_padding.o(i.zero_padding_run), (62 bytes).
    Removing nnom_zero_padding.o(i.zeropadding_s), (20 bytes).
    Removing fdiv.o(.text), (124 bytes).
    Removing fscalb.o(.text), (24 bytes).
    Removing fflti.o(.text), (18 bytes).
    Removing ffixi.o(.text), (50 bytes).
    Removing cfcmple.o(.text), (20 bytes).

680 unused section(s) (total 40780 bytes) removed from the image.

==============================================================================

Image Symbol Table

    Local Symbols

    Symbol Name                              Value     Ov Type        Size  Object(Section)

    ../clib/microlib/division.c              0x00000000   Number         0  uidiv.o ABSOLUTE
    ../clib/microlib/division.c              0x00000000   Number         0  uldiv.o ABSOLUTE
    ../clib/microlib/division.c              0x00000000   Number         0  ldiv.o ABSOLUTE
    ../clib/microlib/init/entry.s            0x00000000   Number         0  entry8b.o ABSOLUTE
    ../clib/microlib/init/entry.s            0x00000000   Number         0  entry11b.o ABSOLUTE
    ../clib/microlib/init/entry.s            0x00000000   Number         0  entry10b.o ABSOLUTE
    ../clib/microlib/init/entry.s            0x00000000   Number         0  entry5.o ABSOLUTE
    ../clib/microlib/init/entry.s            0x00000000   Number         0  entry7a.o ABSOLUTE
    ../clib/microlib/init/entry.s            0x00000000   Number         0  entry7b.o ABSOLUTE
    ../clib/microlib/init/entry.s            0x00000000   Number         0  entry8a.o ABSOLUTE
    ../clib/microlib/init/entry.s            0x00000000   Number         0  entry2.o ABSOLUTE
    ../clib/microlib/init/entry.s            0x00000000   Number         0  entry10a.o ABSOLUTE
    ../clib/microlib/init/entry.s            0x00000000   Number         0  entry9a.o ABSOLUTE
    ../clib/microlib/init/entry.s            0x00000000   Number         0  entry9b.o ABSOLUTE
    ../clib/microlib/init/entry.s            0x00000000   Number         0  entry.o ABSOLUTE
    ../clib/microlib/init/entry.s            0x00000000   Number         0  entry11a.o ABSOLUTE
    ../clib/microlib/longlong.c              0x00000000   Number         0  llshl.o ABSOLUTE
    ../clib/microlib/longlong.c              0x00000000   Number         0  llushr.o ABSOLUTE
    ../clib/microlib/longlong.c              0x00000000   Number         0  llsshr.o ABSOLUTE
    ../clib/microlib/printf/printf.c         0x00000000   Number         0  printf1.o ABSOLUTE
    ../clib/microlib/printf/printf.c         0x00000000   Number         0  printf0.o ABSOLUTE
    ../clib/microlib/printf/printf.c         0x00000000   Number         0  printfb.o ABSOLUTE
    ../clib/microlib/printf/printf.c         0x00000000   Number         0  printf5.o ABSOLUTE
    ../clib/microlib/printf/printf.c         0x00000000   Number         0  printfa.o ABSOLUTE
    ../clib/microlib/printf/printf.c         0x00000000   Number         0  printf8.o ABSOLUTE
    ../clib/microlib/printf/printf.c         0x00000000   Number         0  printf7.o ABSOLUTE
    ../clib/microlib/printf/printf.c         0x00000000   Number         0  printf6.o ABSOLUTE
    ../clib/microlib/printf/printf.c         0x00000000   Number         0  printf4.o ABSOLUTE
    ../clib/microlib/printf/printf.c         0x00000000   Number         0  printf3.o ABSOLUTE
    ../clib/microlib/printf/printf.c         0x00000000   Number         0  printf2.o ABSOLUTE
    ../clib/microlib/printf/stubs.s          0x00000000   Number         0  stubs.o ABSOLUTE
    ../clib/microlib/stdio/streams.c         0x00000000   Number         0  stdout.o ABSOLUTE
    ../clib/microlib/string/memcpy.c         0x00000000   Number         0  memcpyb.o ABSOLUTE
    ../clib/microlib/string/memcpy.c         0x00000000   Number         0  memcpya.o ABSOLUTE
    ../clib/microlib/string/memset.c         0x00000000   Number         0  memseta.o ABSOLUTE
    ../clib/microlib/stubs.s                 0x00000000   Number         0  iusefp.o ABSOLUTE
    ../fplib/microlib/d2f.c                  0x00000000   Number         0  d2f.o ABSOLUTE
    ../fplib/microlib/f2d.c                  0x00000000   Number         0  f2d.o ABSOLUTE
    ../fplib/microlib/fpadd.c                0x00000000   Number         0  fadd.o ABSOLUTE
    ../fplib/microlib/fpadd.c                0x00000000   Number         0  dadd.o ABSOLUTE
    ../fplib/microlib/fpdiv.c                0x00000000   Number         0  ddiv.o ABSOLUTE
    ../fplib/microlib/fpdiv.c                0x00000000   Number         0  fdiv.o ABSOLUTE
    ../fplib/microlib/fpepilogue.c           0x00000000   Number         0  depilogue.o ABSOLUTE
    ../fplib/microlib/fpepilogue.c           0x00000000   Number         0  fepilogue.o ABSOLUTE
    ../fplib/microlib/fpfix.c                0x00000000   Number         0  dfixi.o ABSOLUTE
    ../fplib/microlib/fpfix.c                0x00000000   Number         0  ffixi.o ABSOLUTE
    ../fplib/microlib/fpfix.c                0x00000000   Number         0  ffixui.o ABSOLUTE
    ../fplib/microlib/fpfix.c                0x00000000   Number         0  dfixul.o ABSOLUTE
    ../fplib/microlib/fpfix.c                0x00000000   Number         0  dfixui.o ABSOLUTE
    ../fplib/microlib/fpflt.c                0x00000000   Number         0  dflti.o ABSOLUTE
    ../fplib/microlib/fpflt.c                0x00000000   Number         0  ffltui.o ABSOLUTE
    ../fplib/microlib/fpflt.c                0x00000000   Number         0  fflti.o ABSOLUTE
    ../fplib/microlib/fpmul.c                0x00000000   Number         0  dmul.o ABSOLUTE
    ../fplib/microlib/fpmul.c                0x00000000   Number         0  fmul.o ABSOLUTE
    ../fplib/microlib/fprnd.c                0x00000000   Number         0  drnd.o ABSOLUTE
    ../fplib/microlib/fpscalb.c              0x00000000   Number         0  dscalb.o ABSOLUTE
    ../fplib/microlib/fpscalb.c              0x00000000   Number         0  fscalb.o ABSOLUTE
    ../mathlib/round.c                       0x00000000   Number         0  round.o ABSOLUTE
    CNN\nnom_lib\src\backends\nnom_local.c   0x00000000   Number         0  nnom_local.o ABSOLUTE
    CNN\nnom_lib\src\backends\nnom_local_q15.c 0x00000000   Number         0  nnom_local_q15.o ABSOLUTE
    CNN\nnom_lib\src\core\nnom.c             0x00000000   Number         0  nnom.o ABSOLUTE
    CNN\nnom_lib\src\core\nnom_layers.c      0x00000000   Number         0  nnom_layers.o ABSOLUTE
    CNN\nnom_lib\src\core\nnom_tensor.c      0x00000000   Number         0  nnom_tensor.o ABSOLUTE
    CNN\nnom_lib\src\core\nnom_utils.c       0x00000000   Number         0  nnom_utils.o ABSOLUTE
    CNN\nnom_lib\src\layers\nnom_activation.c 0x00000000   Number         0  nnom_activation.o ABSOLUTE
    CNN\nnom_lib\src\layers\nnom_avgpool.c   0x00000000   Number         0  nnom_avgpool.o ABSOLUTE
    CNN\nnom_lib\src\layers\nnom_baselayer.c 0x00000000   Number         0  nnom_baselayer.o ABSOLUTE
    CNN\nnom_lib\src\layers\nnom_concat.c    0x00000000   Number         0  nnom_concat.o ABSOLUTE
    CNN\nnom_lib\src\layers\nnom_conv2d.c    0x00000000   Number         0  nnom_conv2d.o ABSOLUTE
    CNN\nnom_lib\src\layers\nnom_conv2d_trans.c 0x00000000   Number         0  nnom_conv2d_trans.o ABSOLUTE
    CNN\nnom_lib\src\layers\nnom_cropping.c  0x00000000   Number         0  nnom_cropping.o ABSOLUTE
    CNN\nnom_lib\src\layers\nnom_dense.c     0x00000000   Number         0  nnom_dense.o ABSOLUTE
    CNN\nnom_lib\src\layers\nnom_dw_conv2d.c 0x00000000   Number         0  nnom_dw_conv2d.o ABSOLUTE
    CNN\nnom_lib\src\layers\nnom_flatten.c   0x00000000   Number         0  nnom_flatten.o ABSOLUTE
    CNN\nnom_lib\src\layers\nnom_global_pool.c 0x00000000   Number         0  nnom_global_pool.o ABSOLUTE
    CNN\nnom_lib\src\layers\nnom_gru_cell.c  0x00000000   Number         0  nnom_gru_cell.o ABSOLUTE
    CNN\nnom_lib\src\layers\nnom_input.c     0x00000000   Number         0  nnom_input.o ABSOLUTE
    CNN\nnom_lib\src\layers\nnom_lambda.c    0x00000000   Number         0  nnom_lambda.o ABSOLUTE
    CNN\nnom_lib\src\layers\nnom_lstm_cell.c 0x00000000   Number         0  nnom_lstm_cell.o ABSOLUTE
    CNN\nnom_lib\src\layers\nnom_matrix.c    0x00000000   Number         0  nnom_matrix.o ABSOLUTE
    CNN\nnom_lib\src\layers\nnom_maxpool.c   0x00000000   Number         0  nnom_maxpool.o ABSOLUTE
    CNN\nnom_lib\src\layers\nnom_output.c    0x00000000   Number         0  nnom_output.o ABSOLUTE
    CNN\nnom_lib\src\layers\nnom_reshape.c   0x00000000   Number         0  nnom_reshape.o ABSOLUTE
    CNN\nnom_lib\src\layers\nnom_rnn.c       0x00000000   Number         0  nnom_rnn.o ABSOLUTE
    CNN\nnom_lib\src\layers\nnom_simple_cell.c 0x00000000   Number         0  nnom_simple_cell.o ABSOLUTE
    CNN\nnom_lib\src\layers\nnom_softmax.c   0x00000000   Number         0  nnom_softmax.o ABSOLUTE
    CNN\nnom_lib\src\layers\nnom_sumpool.c   0x00000000   Number         0  nnom_sumpool.o ABSOLUTE
    CNN\nnom_lib\src\layers\nnom_upsample.c  0x00000000   Number         0  nnom_upsample.o ABSOLUTE
    CNN\nnom_lib\src\layers\nnom_zero_padding.c 0x00000000   Number         0  nnom_zero_padding.o ABSOLUTE
    Hardware\Key.c                           0x00000000   Number         0  key.o ABSOLUTE
    Hardware\LED.c                           0x00000000   Number         0  led.o ABSOLUTE
    Hardware\MPU6050.c                       0x00000000   Number         0  mpu6050.o ABSOLUTE
    Hardware\OLED.c                          0x00000000   Number         0  oled.o ABSOLUTE
    Hardware\Serial.c                        0x00000000   Number         0  serial.o ABSOLUTE
    Library\misc.c                           0x00000000   Number         0  misc.o ABSOLUTE
    Library\stm32f10x_adc.c                  0x00000000   Number         0  stm32f10x_adc.o ABSOLUTE
    Library\stm32f10x_bkp.c                  0x00000000   Number         0  stm32f10x_bkp.o ABSOLUTE
    Library\stm32f10x_can.c                  0x00000000   Number         0  stm32f10x_can.o ABSOLUTE
    Library\stm32f10x_cec.c                  0x00000000   Number         0  stm32f10x_cec.o ABSOLUTE
    Library\stm32f10x_crc.c                  0x00000000   Number         0  stm32f10x_crc.o ABSOLUTE
    Library\stm32f10x_dac.c                  0x00000000   Number         0  stm32f10x_dac.o ABSOLUTE
    Library\stm32f10x_dbgmcu.c               0x00000000   Number         0  stm32f10x_dbgmcu.o ABSOLUTE
    Library\stm32f10x_dma.c                  0x00000000   Number         0  stm32f10x_dma.o ABSOLUTE
    Library\stm32f10x_exti.c                 0x00000000   Number         0  stm32f10x_exti.o ABSOLUTE
    Library\stm32f10x_flash.c                0x00000000   Number         0  stm32f10x_flash.o ABSOLUTE
    Library\stm32f10x_fsmc.c                 0x00000000   Number         0  stm32f10x_fsmc.o ABSOLUTE
    Library\stm32f10x_gpio.c                 0x00000000   Number         0  stm32f10x_gpio.o ABSOLUTE
    Library\stm32f10x_i2c.c                  0x00000000   Number         0  stm32f10x_i2c.o ABSOLUTE
    Library\stm32f10x_iwdg.c                 0x00000000   Number         0  stm32f10x_iwdg.o ABSOLUTE
    Library\stm32f10x_pwr.c                  0x00000000   Number         0  stm32f10x_pwr.o ABSOLUTE
    Library\stm32f10x_rcc.c                  0x00000000   Number         0  stm32f10x_rcc.o ABSOLUTE
    Library\stm32f10x_rtc.c                  0x00000000   Number         0  stm32f10x_rtc.o ABSOLUTE
    Library\stm32f10x_sdio.c                 0x00000000   Number         0  stm32f10x_sdio.o ABSOLUTE
    Library\stm32f10x_spi.c                  0x00000000   Number         0  stm32f10x_spi.o ABSOLUTE
    Library\stm32f10x_tim.c                  0x00000000   Number         0  stm32f10x_tim.o ABSOLUTE
    Library\stm32f10x_usart.c                0x00000000   Number         0  stm32f10x_usart.o ABSOLUTE
    Library\stm32f10x_wwdg.c                 0x00000000   Number         0  stm32f10x_wwdg.o ABSOLUTE
    Start\\core_cm3.c                        0x00000000   Number         0  core_cm3.o ABSOLUTE
    Start\core_cm3.c                         0x00000000   Number         0  core_cm3.o ABSOLUTE
    Start\startup_stm32f10x_md.s             0x00000000   Number         0  startup_stm32f10x_md.o ABSOLUTE
    Start\system_stm32f10x.c                 0x00000000   Number         0  system_stm32f10x.o ABSOLUTE
    System\Delay.c                           0x00000000   Number         0  delay.o ABSOLUTE
    User\main.c                              0x00000000   Number         0  main.o ABSOLUTE
    User\stm32f10x_it.c                      0x00000000   Number         0  stm32f10x_it.o ABSOLUTE
    cdcmple.s                                0x00000000   Number         0  cdcmple.o ABSOLUTE
    cdrcmple.s                               0x00000000   Number         0  cdrcmple.o ABSOLUTE
    cfcmple.s                                0x00000000   Number         0  cfcmple.o ABSOLUTE
    dc.s                                     0x00000000   Number         0  dc.o ABSOLUTE
    handlers.s                               0x00000000   Number         0  handlers.o ABSOLUTE
    init.s                                   0x00000000   Number         0  init.o ABSOLUTE
    RESET                                    0x08000000   Section      236  startup_stm32f10x_md.o(RESET)
    .ARM.Collect$$$$00000000                 0x080000ec   Section        0  entry.o(.ARM.Collect$$$$00000000)
    .ARM.Collect$$$$00000001                 0x080000ec   Section        4  entry2.o(.ARM.Collect$$$$00000001)
    .ARM.Collect$$$$00000004                 0x080000f0   Section        4  entry5.o(.ARM.Collect$$$$00000004)
    .ARM.Collect$$$$00000008                 0x080000f4   Section        0  entry7b.o(.ARM.Collect$$$$00000008)
    .ARM.Collect$$$$0000000A                 0x080000f4   Section        0  entry8b.o(.ARM.Collect$$$$0000000A)
    .ARM.Collect$$$$0000000B                 0x080000f4   Section        8  entry9a.o(.ARM.Collect$$$$0000000B)
    .ARM.Collect$$$$0000000D                 0x080000fc   Section        0  entry10a.o(.ARM.Collect$$$$0000000D)
    .ARM.Collect$$$$0000000F                 0x080000fc   Section        0  entry11a.o(.ARM.Collect$$$$0000000F)
    .ARM.Collect$$$$00002712                 0x080000fc   Section        4  entry2.o(.ARM.Collect$$$$00002712)
    __lit__00000000                          0x080000fc   Data           4  entry2.o(.ARM.Collect$$$$00002712)
    .text                                    0x08000100   Section       36  startup_stm32f10x_md.o(.text)
    .text                                    0x08000124   Section        0  uldiv.o(.text)
    .text                                    0x08000186   Section        0  llsshr.o(.text)
    .text                                    0x080001aa   Section        0  memcpya.o(.text)
    .text                                    0x080001ce   Section        0  memseta.o(.text)
    .text                                    0x080001f2   Section        0  fadd.o(.text)
    .text                                    0x080002a2   Section        0  fmul.o(.text)
    .text                                    0x08000306   Section        0  dadd.o(.text)
    .text                                    0x08000454   Section        0  dscalb.o(.text)
    .text                                    0x08000482   Section        0  ffltui.o(.text)
    .text                                    0x0800048c   Section        0  dflti.o(.text)
    .text                                    0x080004ae   Section        0  ffixui.o(.text)
    .text                                    0x080004d6   Section        0  dfixi.o(.text)
    .text                                    0x08000514   Section        0  dfixui.o(.text)
    .text                                    0x08000546   Section        0  f2d.o(.text)
    .text                                    0x0800056c   Section        0  d2f.o(.text)
    .text                                    0x080005a4   Section        0  uidiv.o(.text)
    .text                                    0x080005d0   Section        0  llshl.o(.text)
    .text                                    0x080005ee   Section        0  llushr.o(.text)
    .text                                    0x0800060e   Section        0  fepilogue.o(.text)
    .text                                    0x0800060e   Section        0  iusefp.o(.text)
    .text                                    0x0800067c   Section        0  depilogue.o(.text)
    .text                                    0x08000736   Section        0  dmul.o(.text)
    .text                                    0x0800081a   Section        0  ddiv.o(.text)
    .text                                    0x080008f8   Section        0  drnd.o(.text)
    .text                                    0x08000980   Section        0  dfixul.o(.text)
    .text                                    0x080009b0   Section       48  cdcmple.o(.text)
    .text                                    0x080009e0   Section       48  cdrcmple.o(.text)
    .text                                    0x08000a10   Section       36  init.o(.text)
    i.BusFault_Handler                       0x08000a34   Section        0  stm32f10x_it.o(i.BusFault_Handler)
    i.DebugMon_Handler                       0x08000a36   Section        0  stm32f10x_it.o(i.DebugMon_Handler)
    i.EXTI15_10_IRQHandler                   0x08000a38   Section        0  main.o(i.EXTI15_10_IRQHandler)
    i.EXTI_ClearITPendingBit                 0x08000a5c   Section        0  stm32f10x_exti.o(i.EXTI_ClearITPendingBit)
    i.EXTI_GetITStatus                       0x08000a68   Section        0  stm32f10x_exti.o(i.EXTI_GetITStatus)
    i.EXTI_Init                              0x08000a88   Section        0  stm32f10x_exti.o(i.EXTI_Init)
    i.Flatten                                0x08000afc   Section        0  nnom_flatten.o(i.Flatten)
    i.GPIO_EXTILineConfig                    0x08000b48   Section        0  stm32f10x_gpio.o(i.GPIO_EXTILineConfig)
    i.GPIO_Init                              0x08000b70   Section        0  stm32f10x_gpio.o(i.GPIO_Init)
    i.GPIO_WriteBit                          0x08000c16   Section        0  stm32f10x_gpio.o(i.GPIO_WriteBit)
    i.HardFault_Handler                      0x08000c22   Section        0  stm32f10x_it.o(i.HardFault_Handler)
    i.I2C_AcknowledgeConfig                  0x08000c24   Section        0  stm32f10x_i2c.o(i.I2C_AcknowledgeConfig)
    i.I2C_CheckEvent                         0x08000c3c   Section        0  stm32f10x_i2c.o(i.I2C_CheckEvent)
    i.I2C_Cmd                                0x08000c54   Section        0  stm32f10x_i2c.o(i.I2C_Cmd)
    i.I2C_GenerateSTART                      0x08000c6c   Section        0  stm32f10x_i2c.o(i.I2C_GenerateSTART)
    i.I2C_GenerateSTOP                       0x08000c84   Section        0  stm32f10x_i2c.o(i.I2C_GenerateSTOP)
    i.I2C_Init                               0x08000c9c   Section        0  stm32f10x_i2c.o(i.I2C_Init)
    i.I2C_ReceiveData                        0x08000d5c   Section        0  stm32f10x_i2c.o(i.I2C_ReceiveData)
    i.I2C_Send7bitAddress                    0x08000d62   Section        0  stm32f10x_i2c.o(i.I2C_Send7bitAddress)
    i.I2C_SendData                           0x08000d74   Section        0  stm32f10x_i2c.o(i.I2C_SendData)
    i.Key_Init                               0x08000d78   Section        0  key.o(i.Key_Init)
    i.MPU6050_GetData                        0x08000df0   Section        0  mpu6050.o(i.MPU6050_GetData)
    i.MPU6050_GetDataArray                   0x08000e82   Section        0  mpu6050.o(i.MPU6050_GetDataArray)
    i.MPU6050_Init                           0x08000eb4   Section        0  mpu6050.o(i.MPU6050_Init)
    i.MPU6050_ReadReg                        0x08000f58   Section        0  mpu6050.o(i.MPU6050_ReadReg)
    i.MPU6050_WaitEvent                      0x08000ff0   Section        0  mpu6050.o(i.MPU6050_WaitEvent)
    i.MPU6050_WriteReg                       0x08001010   Section        0  mpu6050.o(i.MPU6050_WriteReg)
    i.MaxPool                                0x08001078   Section        0  nnom_maxpool.o(i.MaxPool)
    i.MemManage_Handler                      0x08001124   Section        0  stm32f10x_it.o(i.MemManage_Handler)
    i.NMI_Handler                            0x08001126   Section        0  stm32f10x_it.o(i.NMI_Handler)
    i.NVIC_Init                              0x08001128   Section        0  misc.o(i.NVIC_Init)
    i.NVIC_PriorityGroupConfig               0x0800118c   Section        0  misc.o(i.NVIC_PriorityGroupConfig)
    i.OLED_Clear                             0x080011a0   Section        0  oled.o(i.OLED_Clear)
    i.OLED_I2C_Init                          0x080011c8   Section        0  oled.o(i.OLED_I2C_Init)
    i.OLED_I2C_SendByte                      0x08001218   Section        0  oled.o(i.OLED_I2C_SendByte)
    i.OLED_I2C_Start                         0x0800127c   Section        0  oled.o(i.OLED_I2C_Start)
    i.OLED_I2C_Stop                          0x080012b4   Section        0  oled.o(i.OLED_I2C_Stop)
    i.OLED_Init                              0x080012e4   Section        0  oled.o(i.OLED_Init)
    i.OLED_Pow                               0x08001390   Section        0  oled.o(i.OLED_Pow)
    i.OLED_SetCursor                         0x080013a0   Section        0  oled.o(i.OLED_SetCursor)
    i.OLED_ShowChar                          0x080013c4   Section        0  oled.o(i.OLED_ShowChar)
    i.OLED_ShowNum                           0x0800141c   Section        0  oled.o(i.OLED_ShowNum)
    i.OLED_ShowString                        0x0800145c   Section        0  oled.o(i.OLED_ShowString)
    i.OLED_WriteCommand                      0x08001482   Section        0  oled.o(i.OLED_WriteCommand)
    i.OLED_WriteData                         0x080014a4   Section        0  oled.o(i.OLED_WriteData)
    i.PendSV_Handler                         0x080014c6   Section        0  stm32f10x_it.o(i.PendSV_Handler)
    i.RCC_APB1PeriphClockCmd                 0x080014c8   Section        0  stm32f10x_rcc.o(i.RCC_APB1PeriphClockCmd)
    i.RCC_APB2PeriphClockCmd                 0x080014e4   Section        0  stm32f10x_rcc.o(i.RCC_APB2PeriphClockCmd)
    i.RCC_GetClocksFreq                      0x08001500   Section        0  stm32f10x_rcc.o(i.RCC_GetClocksFreq)
    i.SVC_Handler                            0x080015ac   Section        0  stm32f10x_it.o(i.SVC_Handler)
    i.Serial_AutoSendNumber                  0x080015ae   Section        0  serial.o(i.Serial_AutoSendNumber)
    i.Serial_Init                            0x080015f4   Section        0  serial.o(i.Serial_Init)
    i.Serial_SendByte                        0x08001660   Section        0  serial.o(i.Serial_SendByte)
    i.Serial_SendFloat                       0x08001680   Section        0  serial.o(i.Serial_SendFloat)
    i.Serial_SendString                      0x080016e8   Section        0  serial.o(i.Serial_SendString)
    i.SetSysClock                            0x08001700   Section        0  system_stm32f10x.o(i.SetSysClock)
    SetSysClock                              0x08001701   Thumb Code     4  system_stm32f10x.o(i.SetSysClock)
    i.SetSysClockTo72                        0x08001704   Section        0  system_stm32f10x.o(i.SetSysClockTo72)
    SetSysClockTo72                          0x08001705   Thumb Code   166  system_stm32f10x.o(i.SetSysClockTo72)
    i.Softmax                                0x080017b4   Section        0  nnom_softmax.o(i.Softmax)
    i.SysTick_Handler                        0x080017fc   Section        0  stm32f10x_it.o(i.SysTick_Handler)
    i.SystemInit                             0x08001800   Section        0  system_stm32f10x.o(i.SystemInit)
    i.USART_Cmd                              0x08001850   Section        0  stm32f10x_usart.o(i.USART_Cmd)
    i.USART_GetFlagStatus                    0x08001868   Section        0  stm32f10x_usart.o(i.USART_GetFlagStatus)
    i.USART_Init                             0x08001878   Section        0  stm32f10x_usart.o(i.USART_Init)
    i.USART_SendData                         0x08001934   Section        0  stm32f10x_usart.o(i.USART_SendData)
    i.UsageFault_Handler                     0x0800193c   Section        0  stm32f10x_it.o(i.UsageFault_Handler)
    i.__0printf                              0x08001940   Section        0  printfa.o(i.__0printf)
    i.__NNOM_SSAT                            0x08001960   Section        0  nnom_local.o(i.__NNOM_SSAT)
    __NNOM_SSAT                              0x08001961   Thumb Code    28  nnom_local.o(i.__NNOM_SSAT)
    i.__NNOM_SSAT                            0x0800197c   Section        0  nnom_local_q15.o(i.__NNOM_SSAT)
    __NNOM_SSAT                              0x0800197d   Thumb Code    28  nnom_local_q15.o(i.__NNOM_SSAT)
    i.__NNOM_USAT                            0x08001998   Section        0  nnom_local.o(i.__NNOM_USAT)
    __NNOM_USAT                              0x08001999   Thumb Code    24  nnom_local.o(i.__NNOM_USAT)
    i.__scatterload_copy                     0x080019b0   Section       14  handlers.o(i.__scatterload_copy)
    i.__scatterload_null                     0x080019be   Section        2  handlers.o(i.__scatterload_null)
    i.__scatterload_zeroinit                 0x080019c0   Section       14  handlers.o(i.__scatterload_zeroinit)
    i._fp_digits                             0x080019d0   Section        0  printfa.o(i._fp_digits)
    _fp_digits                               0x080019d1   Thumb Code   366  printfa.o(i._fp_digits)
    i._printf_core                           0x08001b54   Section        0  printfa.o(i._printf_core)
    _printf_core                             0x08001b55   Thumb Code  1744  printfa.o(i._printf_core)
    i._printf_post_padding                   0x08002230   Section        0  printfa.o(i._printf_post_padding)
    _printf_post_padding                     0x08002231   Thumb Code    36  printfa.o(i._printf_post_padding)
    i._printf_pre_padding                    0x08002254   Section        0  printfa.o(i._printf_pre_padding)
    _printf_pre_padding                      0x08002255   Thumb Code    46  printfa.o(i._printf_pre_padding)
    i.act_get_dec_bit                        0x08002282   Section        0  nnom_activation.o(i.act_get_dec_bit)
    i.act_relu                               0x0800229c   Section        0  nnom_activation.o(i.act_relu)
    i.allocate_block                         0x080022b8   Section        0  nnom.o(i.allocate_block)
    allocate_block                           0x080022b9   Thumb Code    46  nnom.o(i.allocate_block)
    i.allocate_hook                          0x080022ec   Section        0  nnom.o(i.allocate_hook)
    allocate_hook                            0x080022ed   Thumb Code    44  nnom.o(i.allocate_hook)
    i.allocate_io                            0x08002318   Section        0  nnom.o(i.allocate_io)
    allocate_io                              0x08002319   Thumb Code    52  nnom.o(i.allocate_io)
    i.block_mem_set                          0x0800234c   Section        0  nnom.o(i.block_mem_set)
    i.check_model_version                    0x08002370   Section        0  nnom.o(i.check_model_version)
    i.compile_layers                         0x0800240c   Section        0  nnom.o(i.compile_layers)
    i.conv2d_build                           0x08002626   Section        0  nnom_conv2d.o(i.conv2d_build)
    i.conv2d_free                            0x0800271a   Section        0  nnom_conv2d.o(i.conv2d_free)
    i.conv2d_run                             0x08002734   Section        0  nnom_conv2d.o(i.conv2d_run)
    i.conv2d_s                               0x0800283c   Section        0  nnom_conv2d.o(i.conv2d_s)
    i.conv_output_length                     0x08002984   Section        0  nnom_conv2d.o(i.conv_output_length)
    i.default_build                          0x080029a8   Section        0  nnom_baselayer.o(i.default_build)
    i.delete_tensor                          0x080029f2   Section        0  nnom_tensor.o(i.delete_tensor)
    i.dense_build                            0x080029fc   Section        0  nnom_dense.o(i.dense_build)
    i.dense_free                             0x08002acc   Section        0  nnom_dense.o(i.dense_free)
    i.dense_run                              0x08002ae6   Section        0  nnom_dense.o(i.dense_run)
    i.dense_s                                0x08002b40   Section        0  nnom_dense.o(i.dense_s)
    i.dilation                               0x08002bbc   Section        0  nnom_layers.o(i.dilation)
    i.find_last                              0x08002bc2   Section        0  nnom.o(i.find_last)
    find_last                                0x08002bc3   Thumb Code    18  nnom.o(i.find_last)
    i.flatten_build                          0x08002bd4   Section        0  nnom_flatten.o(i.flatten_build)
    i.flatten_run                            0x08002c20   Section        0  nnom_flatten.o(i.flatten_run)
    i.flatten_s                              0x08002c24   Section        0  nnom_flatten.o(i.flatten_s)
    i.fputc                                  0x08002c34   Section        0  serial.o(i.fputc)
    i.input_build                            0x08002c42   Section        0  nnom_input.o(i.input_build)
    i.input_run                              0x08002c6c   Section        0  nnom_input.o(i.input_run)
    i.input_s                                0x08002c8c   Section        0  nnom_input.o(i.input_s)
    i.io_init                                0x08002d7c   Section        0  nnom_layers.o(i.io_init)
    i.io_mem_size                            0x08002d84   Section        0  nnom.o(i.io_mem_size)
    io_mem_size                              0x08002d85   Thumb Code    30  nnom.o(i.io_mem_size)
    i.kernel                                 0x08002da2   Section        0  nnom_layers.o(i.kernel)
    i.layer_run                              0x08002da8   Section        0  nnom.o(i.layer_run)
    i.layer_shortcut_add                     0x08002dec   Section        0  nnom.o(i.layer_shortcut_add)
    layer_shortcut_add                       0x08002ded   Thumb Code    32  nnom.o(i.layer_shortcut_add)
    i.local_convolve_HWC_q15_nonsquare       0x08002e0c   Section        0  nnom_local_q15.o(i.local_convolve_HWC_q15_nonsquare)
    i.local_convolve_HWC_q7_nonsquare        0x08002fd6   Section        0  nnom_local.o(i.local_convolve_HWC_q7_nonsquare)
    i.local_fully_connected_q7_opt           0x08003186   Section        0  nnom_local.o(i.local_fully_connected_q7_opt)
    i.local_maxpool_q7_HWC                   0x080033be   Section        0  nnom_local.o(i.local_maxpool_q7_HWC)
    i.local_relu_q15                         0x0800346a   Section        0  nnom_local_q15.o(i.local_relu_q15)
    i.local_relu_q7                          0x08003486   Section        0  nnom_local.o(i.local_relu_q7)
    i.local_softmax_q7                       0x0800349e   Section        0  nnom_local.o(i.local_softmax_q7)
    i.main                                   0x08003528   Section        0  main.o(i.main)
    i.maxpool_build                          0x08003614   Section        0  nnom_maxpool.o(i.maxpool_build)
    i.maxpool_run                            0x080036f4   Section        0  nnom_maxpool.o(i.maxpool_run)
    i.maxpool_s                              0x0800374a   Section        0  nnom_maxpool.o(i.maxpool_s)
    i.mem_analysis_result                    0x080037ac   Section        0  nnom.o(i.mem_analysis_result)
    i.model_active                           0x08003838   Section        0  nnom.o(i.model_active)
    model_active                             0x08003839   Thumb Code     8  nnom.o(i.model_active)
    i.model_add                              0x08003840   Section        0  nnom.o(i.model_add)
    model_add                                0x08003841   Thumb Code    50  nnom.o(i.model_add)
    i.model_compile                          0x08003878   Section        0  nnom.o(i.model_compile)
    i.model_feed_data                        0x08003a60   Section        0  main.o(i.model_feed_data)
    i.model_hook                             0x08003bb4   Section        0  nnom.o(i.model_hook)
    model_hook                               0x08003bb5   Thumb Code    40  nnom.o(i.model_hook)
    i.model_merge                            0x08003bdc   Section        0  nnom.o(i.model_merge)
    model_merge                              0x08003bdd   Thumb Code    10  nnom.o(i.model_merge)
    i.model_mergex                           0x08003be6   Section        0  nnom.o(i.model_mergex)
    model_mergex                             0x08003be7   Thumb Code    50  nnom.o(i.model_mergex)
    i.model_run                              0x08003c18   Section        0  nnom.o(i.model_run)
    i.model_run_to                           0x08003c20   Section        0  nnom.o(i.model_run_to)
    i.model_set_ops                          0x08003d2c   Section        0  nnom.o(i.model_set_ops)
    model_set_ops                            0x08003d2d   Thumb Code    34  nnom.o(i.model_set_ops)
    i.new_model                              0x08003d50   Section        0  nnom.o(i.new_model)
    i.new_tensor                             0x08003da4   Section        0  nnom_tensor.o(i.new_tensor)
    i.nnom_alignto                           0x08003e34   Section        0  nnom.o(i.nnom_alignto)
    i.nnom_free                              0x08003e4e   Section        0  nnom.o(i.nnom_free)
    i.nnom_hook_length                       0x08003e50   Section        0  nnom.o(i.nnom_hook_length)
    i.nnom_malloc                            0x08003e64   Section        0  nnom.o(i.nnom_malloc)
    i.nnom_mem                               0x08003ea4   Section        0  nnom.o(i.nnom_mem)
    i.nnom_model_create                      0x08003ed0   Section        0  main.o(i.nnom_model_create)
    nnom_model_create                        0x08003ed1   Thumb Code   180  main.o(i.nnom_model_create)
    i.nnom_set_static_buf                    0x08003f8c   Section        0  nnom.o(i.nnom_set_static_buf)
    i.output_run                             0x08003f9c   Section        0  nnom_output.o(i.output_run)
    i.output_s                               0x08003fbc   Section        0  nnom_output.o(i.output_s)
    i.print_layer_info                       0x08003fec   Section        0  nnom.o(i.print_layer_info)
    print_layer_info                         0x08003fed   Thumb Code   288  nnom.o(i.print_layer_info)
    i.print_memory_block_info                0x080041b4   Section        0  nnom.o(i.print_memory_block_info)
    print_memory_block_info                  0x080041b5   Thumb Code    64  nnom.o(i.print_memory_block_info)
    i.release_block                          0x08004208   Section        0  nnom.o(i.release_block)
    release_block                            0x08004209   Thumb Code    20  nnom.o(i.release_block)
    i.release_comp_mem                       0x0800421c   Section        0  nnom.o(i.release_comp_mem)
    release_comp_mem                         0x0800421d   Thumb Code    14  nnom.o(i.release_comp_mem)
    i.release_input_mem                      0x0800422a   Section        0  nnom.o(i.release_input_mem)
    release_input_mem                        0x0800422b   Thumb Code    20  nnom.o(i.release_input_mem)
    i.relu_run                               0x0800423e   Section        0  nnom_activation.o(i.relu_run)
    relu_run                                 0x0800423f   Thumb Code    46  nnom_activation.o(i.relu_run)
    i.round                                  0x0800426c   Section        0  round.o(i.round)
    i.set_tailed_activation                  0x08004300   Section        0  nnom.o(i.set_tailed_activation)
    i.shape                                  0x08004354   Section        0  nnom_layers.o(i.shape)
    i.softmax_build                          0x0800436e   Section        0  nnom_softmax.o(i.softmax_build)
    i.softmax_run                            0x080043a8   Section        0  nnom_softmax.o(i.softmax_run)
    i.softmax_s                              0x080043ca   Section        0  nnom_softmax.o(i.softmax_s)
    i.stride                                 0x080043da   Section        0  nnom_layers.o(i.stride)
    i.tensor_cpy_attr                        0x080043e0   Section        0  nnom_tensor.o(i.tensor_cpy_attr)
    i.tensor_get_num_channel                 0x08004436   Section        0  nnom_tensor.o(i.tensor_get_num_channel)
    i.tensor_mem_set                         0x08004442   Section        0  nnom.o(i.tensor_mem_set)
    i.tensor_set_attr                        0x08004474   Section        0  nnom_tensor.o(i.tensor_set_attr)
    i.tensor_set_attr_v                      0x080044be   Section        0  nnom_tensor.o(i.tensor_set_attr_v)
    i.tensor_size                            0x080044e8   Section        0  nnom_tensor.o(i.tensor_size)
    .constdata                               0x0800450a   Section     1520  oled.o(.constdata)
    .constdata                               0x08004afa   Section        4  main.o(.constdata)
    .constdata                               0x08004b00   Section        4  main.o(.constdata)
    .constdata                               0x08004b04   Section        4  main.o(.constdata)
    .constdata                               0x08004b08   Section       20  main.o(.constdata)
    .constdata                               0x08004b1c   Section      144  main.o(.constdata)
    .constdata                               0x08004bac   Section      270  main.o(.constdata)
    .constdata                               0x08004cba   Section        6  main.o(.constdata)
    .constdata                               0x08004cc0   Section        4  main.o(.constdata)
    .constdata                               0x08004cc4   Section        4  main.o(.constdata)
    .constdata                               0x08004cc8   Section       20  main.o(.constdata)
    .constdata                               0x08004cdc   Section       30  main.o(.constdata)
    .constdata                               0x08004cfa   Section        2  main.o(.constdata)
    .constdata                               0x08004cfc   Section        4  main.o(.constdata)
    .constdata                               0x08004d00   Section        4  main.o(.constdata)
    .constdata                               0x08004d04   Section       20  main.o(.constdata)
    .constdata                               0x08004d18   Section        4  main.o(.constdata)
    .constdata                               0x08004d1c   Section        4  main.o(.constdata)
    .constdata                               0x08004d20   Section     1350  main.o(.constdata)
    .constdata                               0x08005266   Section        6  main.o(.constdata)
    .constdata                               0x0800526c   Section        4  main.o(.constdata)
    .constdata                               0x08005270   Section        4  main.o(.constdata)
    .constdata                               0x08005274   Section       20  main.o(.constdata)
    .constdata                               0x08005288   Section       15  main.o(.constdata)
    .constdata                               0x08005298   Section        2  main.o(.constdata)
    .constdata                               0x0800529c   Section        4  main.o(.constdata)
    .constdata                               0x080052a0   Section        4  main.o(.constdata)
    .constdata                               0x080052a4   Section       20  main.o(.constdata)
    .constdata                               0x080052b8   Section        4  main.o(.constdata)
    .constdata                               0x080052bc   Section        4  main.o(.constdata)
    .constdata                               0x080052c0   Section      975  main.o(.constdata)
    .constdata                               0x08005690   Section        4  main.o(.constdata)
    .constdata                               0x08005694   Section        4  main.o(.constdata)
    .constdata                               0x08005698   Section        4  main.o(.constdata)
    .constdata                               0x0800569c   Section       20  main.o(.constdata)
    .constdata                               0x080056b0   Section       13  main.o(.constdata)
    .constdata                               0x080056be   Section        2  main.o(.constdata)
    .constdata                               0x080056c0   Section        4  main.o(.constdata)
    .constdata                               0x080056c4   Section        4  main.o(.constdata)
    .constdata                               0x080056c8   Section       20  main.o(.constdata)
    .constdata                               0x080056dc   Section        4  main.o(.constdata)
    .constdata                               0x080056e0   Section        4  main.o(.constdata)
    .constdata                               0x080056e4   Section        2  main.o(.constdata)
    .constdata                               0x080056e8   Section        4  main.o(.constdata)
    .constdata                               0x080056ec   Section        4  main.o(.constdata)
    .constdata                               0x080056f0   Section       20  main.o(.constdata)
    .constdata                               0x08005704   Section      492  nnom.o(.constdata)
    .constdata                               0x080058f0   Section        4  nnom_dense.o(.constdata)
    .conststring                             0x080058f4   Section       76  main.o(.conststring)
    .conststring                             0x08005940   Section      701  nnom.o(.conststring)
    .data                                    0x20000000   Section       20  stm32f10x_rcc.o(.data)
    ADCPrescTable                            0x20000000   Data           4  stm32f10x_rcc.o(.data)
    APBAHBPrescTable                         0x20000004   Data          16  stm32f10x_rcc.o(.data)
    .data                                    0x20000014   Section        8  main.o(.data)
    .data                                    0x2000001c   Section       16  nnom.o(.data)
    nnom_static_buf                          0x20000020   Data           4  nnom.o(.data)
    nnom_static_buf_size                     0x20000024   Data           4  nnom.o(.data)
    nnom_static_buf_curr                     0x20000028   Data           4  nnom.o(.data)
    .data                                    0x2000002c   Section        4  stdout.o(.data)
    .bss                                     0x20000030   Section    10592  main.o(.bss)
    nnom_input_data                          0x20000030   Data         450  main.o(.bss)
    nnom_output_data                         0x200001f2   Data          13  main.o(.bss)
    model                                    0x20000200   Data         136  main.o(.bss)
    STACK                                    0x20002990   Section     1024  startup_stm32f10x_md.o(STACK)

    Global Symbols

    Symbol Name                              Value     Ov Type        Size  Object(Section)

    BuildAttributes$$THM_ISAv4$P$D$K$B$S$PE$A:L22UL41UL21$X:L11$S22US41US21$IEEE1$IW$USESV6$~STKCKD$USESV7$~SHL$OTIME$ROPI$IEEEJ$EBA8$MICROLIB$REQ8$PRES8$EABIv2 0x00000000   Number         0  anon$$obj.o ABSOLUTE
    __ARM_use_no_argv                        0x00000000   Number         0  main.o ABSOLUTE
    _printf_a                                0x00000000   Number         0  stubs.o ABSOLUTE
    _printf_c                                0x00000000   Number         0  stubs.o ABSOLUTE
    _printf_charcount                        0x00000000   Number         0  stubs.o ABSOLUTE
    _printf_d                                0x00000000   Number         0  stubs.o ABSOLUTE
    _printf_e                                0x00000000   Number         0  stubs.o ABSOLUTE
    _printf_f                                0x00000000   Number         0  stubs.o ABSOLUTE
    _printf_flags                            0x00000000   Number         0  stubs.o ABSOLUTE
    _printf_fp_dec                           0x00000000   Number         0  stubs.o ABSOLUTE
    _printf_fp_hex                           0x00000000   Number         0  stubs.o ABSOLUTE
    _printf_g                                0x00000000   Number         0  stubs.o ABSOLUTE
    _printf_i                                0x00000000   Number         0  stubs.o ABSOLUTE
    _printf_int_dec                          0x00000000   Number         0  stubs.o ABSOLUTE
    _printf_l                                0x00000000   Number         0  stubs.o ABSOLUTE
    _printf_lc                               0x00000000   Number         0  stubs.o ABSOLUTE
    _printf_ll                               0x00000000   Number         0  stubs.o ABSOLUTE
    _printf_lld                              0x00000000   Number         0  stubs.o ABSOLUTE
    _printf_lli                              0x00000000   Number         0  stubs.o ABSOLUTE
    _printf_llo                              0x00000000   Number         0  stubs.o ABSOLUTE
    _printf_llu                              0x00000000   Number         0  stubs.o ABSOLUTE
    _printf_llx                              0x00000000   Number         0  stubs.o ABSOLUTE
    _printf_longlong_dec                     0x00000000   Number         0  stubs.o ABSOLUTE
    _printf_longlong_hex                     0x00000000   Number         0  stubs.o ABSOLUTE
    _printf_longlong_oct                     0x00000000   Number         0  stubs.o ABSOLUTE
    _printf_ls                               0x00000000   Number         0  stubs.o ABSOLUTE
    _printf_mbtowc                           0x00000000   Number         0  stubs.o ABSOLUTE
    _printf_n                                0x00000000   Number         0  stubs.o ABSOLUTE
    _printf_o                                0x00000000   Number         0  stubs.o ABSOLUTE
    _printf_p                                0x00000000   Number         0  stubs.o ABSOLUTE
    _printf_percent                          0x00000000   Number         0  stubs.o ABSOLUTE
    _printf_pre_padding                      0x00000000   Number         0  stubs.o ABSOLUTE
    _printf_return_value                     0x00000000   Number         0  stubs.o ABSOLUTE
    _printf_s                                0x00000000   Number         0  stubs.o ABSOLUTE
    _printf_sizespec                         0x00000000   Number         0  stubs.o ABSOLUTE
    _printf_str                              0x00000000   Number         0  stubs.o ABSOLUTE
    _printf_truncate_signed                  0x00000000   Number         0  stubs.o ABSOLUTE
    _printf_truncate_unsigned                0x00000000   Number         0  stubs.o ABSOLUTE
    _printf_u                                0x00000000   Number         0  stubs.o ABSOLUTE
    _printf_wc                               0x00000000   Number         0  stubs.o ABSOLUTE
    _printf_wctomb                           0x00000000   Number         0  stubs.o ABSOLUTE
    _printf_widthprec                        0x00000000   Number         0  stubs.o ABSOLUTE
    _printf_x                                0x00000000   Number         0  stubs.o ABSOLUTE
    __cpp_initialize__aeabi_                  - Undefined Weak Reference
    __cxa_finalize                            - Undefined Weak Reference
    __decompress                              - Undefined Weak Reference
    _clock_init                               - Undefined Weak Reference
    _microlib_exit                            - Undefined Weak Reference
    __Vectors_Size                           0x000000ec   Number         0  startup_stm32f10x_md.o ABSOLUTE
    __Vectors                                0x08000000   Data           4  startup_stm32f10x_md.o(RESET)
    __Vectors_End                            0x080000ec   Data           0  startup_stm32f10x_md.o(RESET)
    __main                                   0x080000ed   Thumb Code     0  entry.o(.ARM.Collect$$$$00000000)
    _main_stk                                0x080000ed   Thumb Code     0  entry2.o(.ARM.Collect$$$$00000001)
    _main_scatterload                        0x080000f1   Thumb Code     0  entry5.o(.ARM.Collect$$$$00000004)
    __main_after_scatterload                 0x080000f5   Thumb Code     0  entry5.o(.ARM.Collect$$$$00000004)
    _main_clock                              0x080000f5   Thumb Code     0  entry7b.o(.ARM.Collect$$$$00000008)
    _main_cpp_init                           0x080000f5   Thumb Code     0  entry8b.o(.ARM.Collect$$$$0000000A)
    _main_init                               0x080000f5   Thumb Code     0  entry9a.o(.ARM.Collect$$$$0000000B)
    __rt_final_cpp                           0x080000fd   Thumb Code     0  entry10a.o(.ARM.Collect$$$$0000000D)
    __rt_final_exit                          0x080000fd   Thumb Code     0  entry11a.o(.ARM.Collect$$$$0000000F)
    Reset_Handler                            0x08000101   Thumb Code     8  startup_stm32f10x_md.o(.text)
    ADC1_2_IRQHandler                        0x0800011b   Thumb Code     0  startup_stm32f10x_md.o(.text)
    CAN1_RX1_IRQHandler                      0x0800011b   Thumb Code     0  startup_stm32f10x_md.o(.text)
    CAN1_SCE_IRQHandler                      0x0800011b   Thumb Code     0  startup_stm32f10x_md.o(.text)
    DMA1_Channel1_IRQHandler                 0x0800011b   Thumb Code     0  startup_stm32f10x_md.o(.text)
    DMA1_Channel2_IRQHandler                 0x0800011b   Thumb Code     0  startup_stm32f10x_md.o(.text)
    DMA1_Channel3_IRQHandler                 0x0800011b   Thumb Code     0  startup_stm32f10x_md.o(.text)
    DMA1_Channel4_IRQHandler                 0x0800011b   Thumb Code     0  startup_stm32f10x_md.o(.text)
    DMA1_Channel5_IRQHandler                 0x0800011b   Thumb Code     0  startup_stm32f10x_md.o(.text)
    DMA1_Channel6_IRQHandler                 0x0800011b   Thumb Code     0  startup_stm32f10x_md.o(.text)
    DMA1_Channel7_IRQHandler                 0x0800011b   Thumb Code     0  startup_stm32f10x_md.o(.text)
    EXTI0_IRQHandler                         0x0800011b   Thumb Code     0  startup_stm32f10x_md.o(.text)
    EXTI1_IRQHandler                         0x0800011b   Thumb Code     0  startup_stm32f10x_md.o(.text)
    EXTI2_IRQHandler                         0x0800011b   Thumb Code     0  startup_stm32f10x_md.o(.text)
    EXTI3_IRQHandler                         0x0800011b   Thumb Code     0  startup_stm32f10x_md.o(.text)
    EXTI4_IRQHandler                         0x0800011b   Thumb Code     0  startup_stm32f10x_md.o(.text)
    EXTI9_5_IRQHandler                       0x0800011b   Thumb Code     0  startup_stm32f10x_md.o(.text)
    FLASH_IRQHandler                         0x0800011b   Thumb Code     0  startup_stm32f10x_md.o(.text)
    I2C1_ER_IRQHandler                       0x0800011b   Thumb Code     0  startup_stm32f10x_md.o(.text)
    I2C1_EV_IRQHandler                       0x0800011b   Thumb Code     0  startup_stm32f10x_md.o(.text)
    I2C2_ER_IRQHandler                       0x0800011b   Thumb Code     0  startup_stm32f10x_md.o(.text)
    I2C2_EV_IRQHandler                       0x0800011b   Thumb Code     0  startup_stm32f10x_md.o(.text)
    PVD_IRQHandler                           0x0800011b   Thumb Code     0  startup_stm32f10x_md.o(.text)
    RCC_IRQHandler                           0x0800011b   Thumb Code     0  startup_stm32f10x_md.o(.text)
    RTCAlarm_IRQHandler                      0x0800011b   Thumb Code     0  startup_stm32f10x_md.o(.text)
    RTC_IRQHandler                           0x0800011b   Thumb Code     0  startup_stm32f10x_md.o(.text)
    SPI1_IRQHandler                          0x0800011b   Thumb Code     0  startup_stm32f10x_md.o(.text)
    SPI2_IRQHandler                          0x0800011b   Thumb Code     0  startup_stm32f10x_md.o(.text)
    TAMPER_IRQHandler                        0x0800011b   Thumb Code     0  startup_stm32f10x_md.o(.text)
    TIM1_BRK_IRQHandler                      0x0800011b   Thumb Code     0  startup_stm32f10x_md.o(.text)
    TIM1_CC_IRQHandler                       0x0800011b   Thumb Code     0  startup_stm32f10x_md.o(.text)
    TIM1_TRG_COM_IRQHandler                  0x0800011b   Thumb Code     0  startup_stm32f10x_md.o(.text)
    TIM1_UP_IRQHandler                       0x0800011b   Thumb Code     0  startup_stm32f10x_md.o(.text)
    TIM2_IRQHandler                          0x0800011b   Thumb Code     0  startup_stm32f10x_md.o(.text)
    TIM3_IRQHandler                          0x0800011b   Thumb Code     0  startup_stm32f10x_md.o(.text)
    TIM4_IRQHandler                          0x0800011b   Thumb Code     0  startup_stm32f10x_md.o(.text)
    USART1_IRQHandler                        0x0800011b   Thumb Code     0  startup_stm32f10x_md.o(.text)
    USART2_IRQHandler                        0x0800011b   Thumb Code     0  startup_stm32f10x_md.o(.text)
    USART3_IRQHandler                        0x0800011b   Thumb Code     0  startup_stm32f10x_md.o(.text)
    USBWakeUp_IRQHandler                     0x0800011b   Thumb Code     0  startup_stm32f10x_md.o(.text)
    USB_HP_CAN1_TX_IRQHandler                0x0800011b   Thumb Code     0  startup_stm32f10x_md.o(.text)
    USB_LP_CAN1_RX0_IRQHandler               0x0800011b   Thumb Code     0  startup_stm32f10x_md.o(.text)
    WWDG_IRQHandler                          0x0800011b   Thumb Code     0  startup_stm32f10x_md.o(.text)
    __aeabi_uldivmod                         0x08000125   Thumb Code    98  uldiv.o(.text)
    __aeabi_lasr                             0x08000187   Thumb Code    36  llsshr.o(.text)
    _ll_sshift_r                             0x08000187   Thumb Code     0  llsshr.o(.text)
    __aeabi_memcpy                           0x080001ab   Thumb Code    36  memcpya.o(.text)
    __aeabi_memcpy4                          0x080001ab   Thumb Code     0  memcpya.o(.text)
    __aeabi_memcpy8                          0x080001ab   Thumb Code     0  memcpya.o(.text)
    __aeabi_memset                           0x080001cf   Thumb Code    14  memseta.o(.text)
    __aeabi_memset4                          0x080001cf   Thumb Code     0  memseta.o(.text)
    __aeabi_memset8                          0x080001cf   Thumb Code     0  memseta.o(.text)
    __aeabi_memclr                           0x080001dd   Thumb Code     4  memseta.o(.text)
    __aeabi_memclr4                          0x080001dd   Thumb Code     0  memseta.o(.text)
    __aeabi_memclr8                          0x080001dd   Thumb Code     0  memseta.o(.text)
    _memset$wrapper                          0x080001e1   Thumb Code    18  memseta.o(.text)
    __aeabi_fadd                             0x080001f3   Thumb Code   164  fadd.o(.text)
    __aeabi_fsub                             0x08000297   Thumb Code     6  fadd.o(.text)
    __aeabi_frsub                            0x0800029d   Thumb Code     6  fadd.o(.text)
    __aeabi_fmul                             0x080002a3   Thumb Code   100  fmul.o(.text)
    __aeabi_dadd                             0x08000307   Thumb Code   322  dadd.o(.text)
    __aeabi_dsub                             0x08000449   Thumb Code     6  dadd.o(.text)
    __aeabi_drsub                            0x0800044f   Thumb Code     6  dadd.o(.text)
    __ARM_scalbn                             0x08000455   Thumb Code    46  dscalb.o(.text)
    scalbn                                   0x08000455   Thumb Code     0  dscalb.o(.text)
    __aeabi_ui2f                             0x08000483   Thumb Code    10  ffltui.o(.text)
    __aeabi_i2d                              0x0800048d   Thumb Code    34  dflti.o(.text)
    __aeabi_f2uiz                            0x080004af   Thumb Code    40  ffixui.o(.text)
    __aeabi_d2iz                             0x080004d7   Thumb Code    62  dfixi.o(.text)
    __aeabi_d2uiz                            0x08000515   Thumb Code    50  dfixui.o(.text)
    __aeabi_f2d                              0x08000547   Thumb Code    38  f2d.o(.text)
    __aeabi_d2f                              0x0800056d   Thumb Code    56  d2f.o(.text)
    __aeabi_uidiv                            0x080005a5   Thumb Code     0  uidiv.o(.text)
    __aeabi_uidivmod                         0x080005a5   Thumb Code    44  uidiv.o(.text)
    __aeabi_llsl                             0x080005d1   Thumb Code    30  llshl.o(.text)
    _ll_shift_l                              0x080005d1   Thumb Code     0  llshl.o(.text)
    __aeabi_llsr                             0x080005ef   Thumb Code    32  llushr.o(.text)
    _ll_ushift_r                             0x080005ef   Thumb Code     0  llushr.o(.text)
    __I$use$fp                               0x0800060f   Thumb Code     0  iusefp.o(.text)
    _float_round                             0x0800060f   Thumb Code    18  fepilogue.o(.text)
    _float_epilogue                          0x08000621   Thumb Code    92  fepilogue.o(.text)
    _double_round                            0x0800067d   Thumb Code    30  depilogue.o(.text)
    _double_epilogue                         0x0800069b   Thumb Code   156  depilogue.o(.text)
    __aeabi_dmul                             0x08000737   Thumb Code   228  dmul.o(.text)
    __aeabi_ddiv                             0x0800081b   Thumb Code   222  ddiv.o(.text)
    _drnd                                    0x080008f9   Thumb Code   132  drnd.o(.text)
    __aeabi_d2ulz                            0x08000981   Thumb Code    48  dfixul.o(.text)
    __aeabi_cdcmpeq                          0x080009b1   Thumb Code     0  cdcmple.o(.text)
    __aeabi_cdcmple                          0x080009b1   Thumb Code    48  cdcmple.o(.text)
    __aeabi_cdrcmple                         0x080009e1   Thumb Code    48  cdrcmple.o(.text)
    __scatterload                            0x08000a11   Thumb Code    28  init.o(.text)
    __scatterload_rt2                        0x08000a11   Thumb Code     0  init.o(.text)
    BusFault_Handler                         0x08000a35   Thumb Code     2  stm32f10x_it.o(i.BusFault_Handler)
    DebugMon_Handler                         0x08000a37   Thumb Code     2  stm32f10x_it.o(i.DebugMon_Handler)
    EXTI15_10_IRQHandler                     0x08000a39   Thumb Code    32  main.o(i.EXTI15_10_IRQHandler)
    EXTI_ClearITPendingBit                   0x08000a5d   Thumb Code     6  stm32f10x_exti.o(i.EXTI_ClearITPendingBit)
    EXTI_GetITStatus                         0x08000a69   Thumb Code    28  stm32f10x_exti.o(i.EXTI_GetITStatus)
    EXTI_Init                                0x08000a89   Thumb Code   110  stm32f10x_exti.o(i.EXTI_Init)
    Flatten                                  0x08000afd   Thumb Code    66  nnom_flatten.o(i.Flatten)
    GPIO_EXTILineConfig                      0x08000b49   Thumb Code    34  stm32f10x_gpio.o(i.GPIO_EXTILineConfig)
    GPIO_Init                                0x08000b71   Thumb Code   166  stm32f10x_gpio.o(i.GPIO_Init)
    GPIO_WriteBit                            0x08000c17   Thumb Code    12  stm32f10x_gpio.o(i.GPIO_WriteBit)
    HardFault_Handler                        0x08000c23   Thumb Code     2  stm32f10x_it.o(i.HardFault_Handler)
    I2C_AcknowledgeConfig                    0x08000c25   Thumb Code    24  stm32f10x_i2c.o(i.I2C_AcknowledgeConfig)
    I2C_CheckEvent                           0x08000c3d   Thumb Code    24  stm32f10x_i2c.o(i.I2C_CheckEvent)
    I2C_Cmd                                  0x08000c55   Thumb Code    24  stm32f10x_i2c.o(i.I2C_Cmd)
    I2C_GenerateSTART                        0x08000c6d   Thumb Code    24  stm32f10x_i2c.o(i.I2C_GenerateSTART)
    I2C_GenerateSTOP                         0x08000c85   Thumb Code    24  stm32f10x_i2c.o(i.I2C_GenerateSTOP)
    I2C_Init                                 0x08000c9d   Thumb Code   182  stm32f10x_i2c.o(i.I2C_Init)
    I2C_ReceiveData                          0x08000d5d   Thumb Code     6  stm32f10x_i2c.o(i.I2C_ReceiveData)
    I2C_Send7bitAddress                      0x08000d63   Thumb Code    18  stm32f10x_i2c.o(i.I2C_Send7bitAddress)
    I2C_SendData                             0x08000d75   Thumb Code     4  stm32f10x_i2c.o(i.I2C_SendData)
    Key_Init                                 0x08000d79   Thumb Code   114  key.o(i.Key_Init)
    MPU6050_GetData                          0x08000df1   Thumb Code   146  mpu6050.o(i.MPU6050_GetData)
    MPU6050_GetDataArray                     0x08000e83   Thumb Code    48  mpu6050.o(i.MPU6050_GetDataArray)
    MPU6050_Init                             0x08000eb5   Thumb Code   156  mpu6050.o(i.MPU6050_Init)
    MPU6050_ReadReg                          0x08000f59   Thumb Code   140  mpu6050.o(i.MPU6050_ReadReg)
    MPU6050_WaitEvent                        0x08000ff1   Thumb Code    32  mpu6050.o(i.MPU6050_WaitEvent)
    MPU6050_WriteReg                         0x08001011   Thumb Code    90  mpu6050.o(i.MPU6050_WriteReg)
    MaxPool                                  0x08001079   Thumb Code   164  nnom_maxpool.o(i.MaxPool)
    MemManage_Handler                        0x08001125   Thumb Code     2  stm32f10x_it.o(i.MemManage_Handler)
    NMI_Handler                              0x08001127   Thumb Code     2  stm32f10x_it.o(i.NMI_Handler)
    NVIC_Init                                0x08001129   Thumb Code    96  misc.o(i.NVIC_Init)
    NVIC_PriorityGroupConfig                 0x0800118d   Thumb Code    10  misc.o(i.NVIC_PriorityGroupConfig)
    OLED_Clear                               0x080011a1   Thumb Code    38  oled.o(i.OLED_Clear)
    OLED_I2C_Init                            0x080011c9   Thumb Code    76  oled.o(i.OLED_I2C_Init)
    OLED_I2C_SendByte                        0x08001219   Thumb Code    94  oled.o(i.OLED_I2C_SendByte)
    OLED_I2C_Start                           0x0800127d   Thumb Code    52  oled.o(i.OLED_I2C_Start)
    OLED_I2C_Stop                            0x080012b5   Thumb Code    42  oled.o(i.OLED_I2C_Stop)
    OLED_Init                                0x080012e5   Thumb Code   172  oled.o(i.OLED_Init)
    OLED_Pow                                 0x08001391   Thumb Code    16  oled.o(i.OLED_Pow)
    OLED_SetCursor                           0x080013a1   Thumb Code    34  oled.o(i.OLED_SetCursor)
    OLED_ShowChar                            0x080013c5   Thumb Code    82  oled.o(i.OLED_ShowChar)
    OLED_ShowNum                             0x0800141d   Thumb Code    64  oled.o(i.OLED_ShowNum)
    OLED_ShowString                          0x0800145d   Thumb Code    38  oled.o(i.OLED_ShowString)
    OLED_WriteCommand                        0x08001483   Thumb Code    34  oled.o(i.OLED_WriteCommand)
    OLED_WriteData                           0x080014a5   Thumb Code    34  oled.o(i.OLED_WriteData)
    PendSV_Handler                           0x080014c7   Thumb Code     2  stm32f10x_it.o(i.PendSV_Handler)
    RCC_APB1PeriphClockCmd                   0x080014c9   Thumb Code    22  stm32f10x_rcc.o(i.RCC_APB1PeriphClockCmd)
    RCC_APB2PeriphClockCmd                   0x080014e5   Thumb Code    22  stm32f10x_rcc.o(i.RCC_APB2PeriphClockCmd)
    RCC_GetClocksFreq                        0x08001501   Thumb Code   154  stm32f10x_rcc.o(i.RCC_GetClocksFreq)
    SVC_Handler                              0x080015ad   Thumb Code     2  stm32f10x_it.o(i.SVC_Handler)
    Serial_AutoSendNumber                    0x080015af   Thumb Code    68  serial.o(i.Serial_AutoSendNumber)
    Serial_Init                              0x080015f5   Thumb Code   100  serial.o(i.Serial_Init)
    Serial_SendByte                          0x08001661   Thumb Code    26  serial.o(i.Serial_SendByte)
    Serial_SendFloat                         0x08001681   Thumb Code    96  serial.o(i.Serial_SendFloat)
    Serial_SendString                        0x080016e9   Thumb Code    24  serial.o(i.Serial_SendString)
    Softmax                                  0x080017b5   Thumb Code    64  nnom_softmax.o(i.Softmax)
    SysTick_Handler                          0x080017fd   Thumb Code     2  stm32f10x_it.o(i.SysTick_Handler)
    SystemInit                               0x08001801   Thumb Code    64  system_stm32f10x.o(i.SystemInit)
    USART_Cmd                                0x08001851   Thumb Code    24  stm32f10x_usart.o(i.USART_Cmd)
    USART_GetFlagStatus                      0x08001869   Thumb Code    14  stm32f10x_usart.o(i.USART_GetFlagStatus)
    USART_Init                               0x08001879   Thumb Code   182  stm32f10x_usart.o(i.USART_Init)
    USART_SendData                           0x08001935   Thumb Code     8  stm32f10x_usart.o(i.USART_SendData)
    UsageFault_Handler                       0x0800193d   Thumb Code     2  stm32f10x_it.o(i.UsageFault_Handler)
    __0printf                                0x08001941   Thumb Code    22  printfa.o(i.__0printf)
    __1printf                                0x08001941   Thumb Code     0  printfa.o(i.__0printf)
    __2printf                                0x08001941   Thumb Code     0  printfa.o(i.__0printf)
    __c89printf                              0x08001941   Thumb Code     0  printfa.o(i.__0printf)
    printf                                   0x08001941   Thumb Code     0  printfa.o(i.__0printf)
    __scatterload_copy                       0x080019b1   Thumb Code    14  handlers.o(i.__scatterload_copy)
    __scatterload_null                       0x080019bf   Thumb Code     2  handlers.o(i.__scatterload_null)
    __scatterload_zeroinit                   0x080019c1   Thumb Code    14  handlers.o(i.__scatterload_zeroinit)
    act_get_dec_bit                          0x08002283   Thumb Code    24  nnom_activation.o(i.act_get_dec_bit)
    act_relu                                 0x0800229d   Thumb Code    24  nnom_activation.o(i.act_relu)
    block_mem_set                            0x0800234d   Thumb Code    34  nnom.o(i.block_mem_set)
    check_model_version                      0x08002371   Thumb Code    62  nnom.o(i.check_model_version)
    compile_layers                           0x0800240d   Thumb Code   538  nnom.o(i.compile_layers)
    conv2d_build                             0x08002627   Thumb Code   244  nnom_conv2d.o(i.conv2d_build)
    conv2d_free                              0x0800271b   Thumb Code    26  nnom_conv2d.o(i.conv2d_free)
    conv2d_run                               0x08002735   Thumb Code   262  nnom_conv2d.o(i.conv2d_run)
    conv2d_s                                 0x0800283d   Thumb Code   314  nnom_conv2d.o(i.conv2d_s)
    conv_output_length                       0x08002985   Thumb Code    36  nnom_conv2d.o(i.conv_output_length)
    default_build                            0x080029a9   Thumb Code    74  nnom_baselayer.o(i.default_build)
    delete_tensor                            0x080029f3   Thumb Code    10  nnom_tensor.o(i.delete_tensor)
    dense_build                              0x080029fd   Thumb Code   202  nnom_dense.o(i.dense_build)
    dense_free                               0x08002acd   Thumb Code    26  nnom_dense.o(i.dense_free)
    dense_run                                0x08002ae7   Thumb Code    90  nnom_dense.o(i.dense_run)
    dense_s                                  0x08002b41   Thumb Code   110  nnom_dense.o(i.dense_s)
    dilation                                 0x08002bbd   Thumb Code     6  nnom_layers.o(i.dilation)
    flatten_build                            0x08002bd5   Thumb Code    76  nnom_flatten.o(i.flatten_build)
    flatten_run                              0x08002c21   Thumb Code     4  nnom_flatten.o(i.flatten_run)
    flatten_s                                0x08002c25   Thumb Code    16  nnom_flatten.o(i.flatten_s)
    fputc                                    0x08002c35   Thumb Code    14  serial.o(i.fputc)
    input_build                              0x08002c43   Thumb Code    42  nnom_input.o(i.input_build)
    input_run                                0x08002c6d   Thumb Code    30  nnom_input.o(i.input_run)
    input_s                                  0x08002c8d   Thumb Code   230  nnom_input.o(i.input_s)
    io_init                                  0x08002d7d   Thumb Code     8  nnom_layers.o(i.io_init)
    kernel                                   0x08002da3   Thumb Code     6  nnom_layers.o(i.kernel)
    layer_run                                0x08002da9   Thumb Code    44  nnom.o(i.layer_run)
    local_convolve_HWC_q15_nonsquare         0x08002e0d   Thumb Code   458  nnom_local_q15.o(i.local_convolve_HWC_q15_nonsquare)
    local_convolve_HWC_q7_nonsquare          0x08002fd7   Thumb Code   432  nnom_local.o(i.local_convolve_HWC_q7_nonsquare)
    local_fully_connected_q7_opt             0x08003187   Thumb Code   568  nnom_local.o(i.local_fully_connected_q7_opt)
    local_maxpool_q7_HWC                     0x080033bf   Thumb Code   172  nnom_local.o(i.local_maxpool_q7_HWC)
    local_relu_q15                           0x0800346b   Thumb Code    28  nnom_local_q15.o(i.local_relu_q15)
    local_relu_q7                            0x08003487   Thumb Code    24  nnom_local.o(i.local_relu_q7)
    local_softmax_q7                         0x0800349f   Thumb Code   136  nnom_local.o(i.local_softmax_q7)
    main                                     0x08003529   Thumb Code   188  main.o(i.main)
    maxpool_build                            0x08003615   Thumb Code   224  nnom_maxpool.o(i.maxpool_build)
    maxpool_run                              0x080036f5   Thumb Code    86  nnom_maxpool.o(i.maxpool_run)
    maxpool_s                                0x0800374b   Thumb Code    98  nnom_maxpool.o(i.maxpool_s)
    mem_analysis_result                      0x080037ad   Thumb Code    52  nnom.o(i.mem_analysis_result)
    model_compile                            0x08003879   Thumb Code   218  nnom.o(i.model_compile)
    model_feed_data                          0x08003a61   Thumb Code   316  main.o(i.model_feed_data)
    model_run                                0x08003c19   Thumb Code     6  nnom.o(i.model_run)
    model_run_to                             0x08003c21   Thumb Code   138  nnom.o(i.model_run_to)
    new_model                                0x08003d51   Thumb Code    62  nnom.o(i.new_model)
    new_tensor                               0x08003da5   Thumb Code   106  nnom_tensor.o(i.new_tensor)
    nnom_alignto                             0x08003e35   Thumb Code    26  nnom.o(i.nnom_alignto)
    nnom_free                                0x08003e4f   Thumb Code     2  nnom.o(i.nnom_free)
    nnom_hook_length                         0x08003e51   Thumb Code    20  nnom.o(i.nnom_hook_length)
    nnom_malloc                              0x08003e65   Thumb Code    52  nnom.o(i.nnom_malloc)
    nnom_mem                                 0x08003ea5   Thumb Code    40  nnom.o(i.nnom_mem)
    nnom_set_static_buf                      0x08003f8d   Thumb Code    12  nnom.o(i.nnom_set_static_buf)
    output_run                               0x08003f9d   Thumb Code    30  nnom_output.o(i.output_run)
    output_s                                 0x08003fbd   Thumb Code    40  nnom_output.o(i.output_s)
    round                                    0x0800426d   Thumb Code   136  round.o(i.round)
    set_tailed_activation                    0x08004301   Thumb Code    58  nnom.o(i.set_tailed_activation)
    shape                                    0x08004355   Thumb Code    26  nnom_layers.o(i.shape)
    softmax_build                            0x0800436f   Thumb Code    58  nnom_softmax.o(i.softmax_build)
    softmax_run                              0x080043a9   Thumb Code    34  nnom_softmax.o(i.softmax_run)
    softmax_s                                0x080043cb   Thumb Code    16  nnom_softmax.o(i.softmax_s)
    stride                                   0x080043db   Thumb Code     6  nnom_layers.o(i.stride)
    tensor_cpy_attr                          0x080043e1   Thumb Code    86  nnom_tensor.o(i.tensor_cpy_attr)
    tensor_get_num_channel                   0x08004437   Thumb Code    12  nnom_tensor.o(i.tensor_get_num_channel)
    tensor_mem_set                           0x08004443   Thumb Code    50  nnom.o(i.tensor_mem_set)
    tensor_set_attr                          0x08004475   Thumb Code    74  nnom_tensor.o(i.tensor_set_attr)
    tensor_set_attr_v                        0x080044bf   Thumb Code    42  nnom_tensor.o(i.tensor_set_attr_v)
    tensor_size                              0x080044e9   Thumb Code    34  nnom_tensor.o(i.tensor_size)
    OLED_F8x16                               0x0800450a   Data        1520  oled.o(.constdata)
    tensor_input_1_dim                       0x08004afa   Data           4  main.o(.constdata)
    tensor_input_1_dec                       0x08004b00   Data           4  main.o(.constdata)
    tensor_input_1_offset                    0x08004b04   Data           4  main.o(.constdata)
    tensor_input_1                           0x08004b08   Data          20  main.o(.constdata)
    flatten_config                           0x08004b1c   Data           4  main.o(.constdata)
    softmax_config                           0x08004b20   Data           4  main.o(.constdata)
    input_1_config                           0x08004b24   Data           8  main.o(.constdata)
    output0_config                           0x08004b2c   Data           8  main.o(.constdata)
    conv1d_config                            0x08004b34   Data          40  main.o(.constdata)
    conv1d_1_config                          0x08004b5c   Data          40  main.o(.constdata)
    max_pooling1d_config                     0x08004b84   Data          16  main.o(.constdata)
    dense_config                             0x08004b94   Data          24  main.o(.constdata)
    tensor_conv1d_kernel_0_data              0x08004bac   Data         270  main.o(.constdata)
    tensor_conv1d_kernel_0_dim               0x08004cba   Data           6  main.o(.constdata)
    tensor_conv1d_kernel_0_dec               0x08004cc0   Data           4  main.o(.constdata)
    tensor_conv1d_kernel_0_offset            0x08004cc4   Data           4  main.o(.constdata)
    tensor_conv1d_kernel_0                   0x08004cc8   Data          20  main.o(.constdata)
    tensor_conv1d_bias_0_data                0x08004cdc   Data          30  main.o(.constdata)
    tensor_conv1d_bias_0_dim                 0x08004cfa   Data           2  main.o(.constdata)
    tensor_conv1d_bias_0_dec                 0x08004cfc   Data           4  main.o(.constdata)
    tensor_conv1d_bias_0_offset              0x08004d00   Data           4  main.o(.constdata)
    tensor_conv1d_bias_0                     0x08004d04   Data          20  main.o(.constdata)
    conv1d_output_shift                      0x08004d18   Data           4  main.o(.constdata)
    conv1d_bias_shift                        0x08004d1c   Data           4  main.o(.constdata)
    tensor_conv1d_1_kernel_0_data            0x08004d20   Data        1350  main.o(.constdata)
    tensor_conv1d_1_kernel_0_dim             0x08005266   Data           6  main.o(.constdata)
    tensor_conv1d_1_kernel_0_dec             0x0800526c   Data           4  main.o(.constdata)
    tensor_conv1d_1_kernel_0_offset          0x08005270   Data           4  main.o(.constdata)
    tensor_conv1d_1_kernel_0                 0x08005274   Data          20  main.o(.constdata)
    tensor_conv1d_1_bias_0_data              0x08005288   Data          15  main.o(.constdata)
    tensor_conv1d_1_bias_0_dim               0x08005298   Data           2  main.o(.constdata)
    tensor_conv1d_1_bias_0_dec               0x0800529c   Data           4  main.o(.constdata)
    tensor_conv1d_1_bias_0_offset            0x080052a0   Data           4  main.o(.constdata)
    tensor_conv1d_1_bias_0                   0x080052a4   Data          20  main.o(.constdata)
    conv1d_1_output_shift                    0x080052b8   Data           4  main.o(.constdata)
    conv1d_1_bias_shift                      0x080052bc   Data           4  main.o(.constdata)
    tensor_dense_kernel_0_data               0x080052c0   Data         975  main.o(.constdata)
    tensor_dense_kernel_0_dim                0x08005690   Data           4  main.o(.constdata)
    tensor_dense_kernel_0_dec                0x08005694   Data           4  main.o(.constdata)
    tensor_dense_kernel_0_offset             0x08005698   Data           4  main.o(.constdata)
    tensor_dense_kernel_0                    0x0800569c   Data          20  main.o(.constdata)
    tensor_dense_bias_0_data                 0x080056b0   Data          13  main.o(.constdata)
    tensor_dense_bias_0_dim                  0x080056be   Data           2  main.o(.constdata)
    tensor_dense_bias_0_dec                  0x080056c0   Data           4  main.o(.constdata)
    tensor_dense_bias_0_offset               0x080056c4   Data           4  main.o(.constdata)
    tensor_dense_bias_0                      0x080056c8   Data          20  main.o(.constdata)
    dense_output_shift                       0x080056dc   Data           4  main.o(.constdata)
    dense_bias_shift                         0x080056e0   Data           4  main.o(.constdata)
    tensor_output0_dim                       0x080056e4   Data           2  main.o(.constdata)
    tensor_output0_dec                       0x080056e8   Data           4  main.o(.constdata)
    tensor_output0_offset                    0x080056ec   Data           4  main.o(.constdata)
    tensor_output0                           0x080056f0   Data          20  main.o(.constdata)
    default_layer_names                      0x08005704   Data         396  nnom.o(.constdata)
    default_activation_names                 0x08005890   Data          64  nnom.o(.constdata)
    default_cell_names                       0x080058d0   Data          32  nnom.o(.constdata)
    Region$$Table$$Base                      0x08005c00   Number         0  anon$$obj.o(Region$$Table)
    Region$$Table$$Limit                     0x08005c20   Number         0  anon$$obj.o(Region$$Table)
    mpustatus                                0x20000014   Data           4  main.o(.data)
    model                                    0x20000018   Data           4  main.o(.data)
    nnom_memory_taken                        0x2000001c   Data           4  nnom.o(.data)
    __stdout                                 0x2000002c   Data           4  stdout.o(.data)
    static_buf                               0x20000288   Data        8192  main.o(.bss)
    mpu                                      0x20002288   Data        1800  main.o(.bss)
    __initial_sp                             0x20002d90   Data           0  startup_stm32f10x_md.o(STACK)



==============================================================================

Memory Map of the image

  Image Entry point : 0x080000ed

  Load Region LR_IROM1 (Base: 0x08000000, Size: 0x00005c50, Max: 0x00010000, ABSOLUTE)

    Execution Region ER_IROM1 (Exec base: 0x08000000, Load base: 0x08000000, Size: 0x00005c20, Max: 0x00010000, ABSOLUTE)

    Exec Addr    Load Addr    Size         Type   Attr      Idx    E Section Name        Object

    0x08000000   0x08000000   0x000000ec   Data   RO            3    RESET               startup_stm32f10x_md.o
    0x080000ec   0x080000ec   0x00000000   Code   RO         5920  * .ARM.Collect$$$$00000000  mc_w.l(entry.o)
    0x080000ec   0x080000ec   0x00000004   Code   RO         6228    .ARM.Collect$$$$00000001  mc_w.l(entry2.o)
    0x080000f0   0x080000f0   0x00000004   Code   RO         6231    .ARM.Collect$$$$00000004  mc_w.l(entry5.o)
    0x080000f4   0x080000f4   0x00000000   Code   RO         6233    .ARM.Collect$$$$00000008  mc_w.l(entry7b.o)
    0x080000f4   0x080000f4   0x00000000   Code   RO         6235    .ARM.Collect$$$$0000000A  mc_w.l(entry8b.o)
    0x080000f4   0x080000f4   0x00000008   Code   RO         6236    .ARM.Collect$$$$0000000B  mc_w.l(entry9a.o)
    0x080000fc   0x080000fc   0x00000000   Code   RO         6238    .ARM.Collect$$$$0000000D  mc_w.l(entry10a.o)
    0x080000fc   0x080000fc   0x00000000   Code   RO         6240    .ARM.Collect$$$$0000000F  mc_w.l(entry11a.o)
    0x080000fc   0x080000fc   0x00000004   Code   RO         6229    .ARM.Collect$$$$00002712  mc_w.l(entry2.o)
    0x08000100   0x08000100   0x00000024   Code   RO            4    .text               startup_stm32f10x_md.o
    0x08000124   0x08000124   0x00000062   Code   RO         5923    .text               mc_w.l(uldiv.o)
    0x08000186   0x08000186   0x00000024   Code   RO         5927    .text               mc_w.l(llsshr.o)
    0x080001aa   0x080001aa   0x00000024   Code   RO         5929    .text               mc_w.l(memcpya.o)
    0x080001ce   0x080001ce   0x00000024   Code   RO         5931    .text               mc_w.l(memseta.o)
    0x080001f2   0x080001f2   0x000000b0   Code   RO         6196    .text               mf_w.l(fadd.o)
    0x080002a2   0x080002a2   0x00000064   Code   RO         6198    .text               mf_w.l(fmul.o)
    0x08000306   0x08000306   0x0000014e   Code   RO         6204    .text               mf_w.l(dadd.o)
    0x08000454   0x08000454   0x0000002e   Code   RO         6206    .text               mf_w.l(dscalb.o)
    0x08000482   0x08000482   0x0000000a   Code   RO         6210    .text               mf_w.l(ffltui.o)
    0x0800048c   0x0800048c   0x00000022   Code   RO         6212    .text               mf_w.l(dflti.o)
    0x080004ae   0x080004ae   0x00000028   Code   RO         6216    .text               mf_w.l(ffixui.o)
    0x080004d6   0x080004d6   0x0000003e   Code   RO         6218    .text               mf_w.l(dfixi.o)
    0x08000514   0x08000514   0x00000032   Code   RO         6220    .text               mf_w.l(dfixui.o)
    0x08000546   0x08000546   0x00000026   Code   RO         6222    .text               mf_w.l(f2d.o)
    0x0800056c   0x0800056c   0x00000038   Code   RO         6224    .text               mf_w.l(d2f.o)
    0x080005a4   0x080005a4   0x0000002c   Code   RO         6243    .text               mc_w.l(uidiv.o)
    0x080005d0   0x080005d0   0x0000001e   Code   RO         6245    .text               mc_w.l(llshl.o)
    0x080005ee   0x080005ee   0x00000020   Code   RO         6247    .text               mc_w.l(llushr.o)
    0x0800060e   0x0800060e   0x00000000   Code   RO         6249    .text               mc_w.l(iusefp.o)
    0x0800060e   0x0800060e   0x0000006e   Code   RO         6250    .text               mf_w.l(fepilogue.o)
    0x0800067c   0x0800067c   0x000000ba   Code   RO         6252    .text               mf_w.l(depilogue.o)
    0x08000736   0x08000736   0x000000e4   Code   RO         6254    .text               mf_w.l(dmul.o)
    0x0800081a   0x0800081a   0x000000de   Code   RO         6256    .text               mf_w.l(ddiv.o)
    0x080008f8   0x080008f8   0x00000088   Code   RO         6258    .text               mf_w.l(drnd.o)
    0x08000980   0x08000980   0x00000030   Code   RO         6260    .text               mf_w.l(dfixul.o)
    0x080009b0   0x080009b0   0x00000030   Code   RO         6262    .text               mf_w.l(cdcmple.o)
    0x080009e0   0x080009e0   0x00000030   Code   RO         6264    .text               mf_w.l(cdrcmple.o)
    0x08000a10   0x08000a10   0x00000024   Code   RO         6266    .text               mc_w.l(init.o)
    0x08000a34   0x08000a34   0x00000002   Code   RO         3724    i.BusFault_Handler  stm32f10x_it.o
    0x08000a36   0x08000a36   0x00000002   Code   RO         3725    i.DebugMon_Handler  stm32f10x_it.o
    0x08000a38   0x08000a38   0x00000024   Code   RO         3518    i.EXTI15_10_IRQHandler  main.o
    0x08000a5c   0x08000a5c   0x0000000c   Code   RO          985    i.EXTI_ClearITPendingBit  stm32f10x_exti.o
    0x08000a68   0x08000a68   0x00000020   Code   RO          989    i.EXTI_GetITStatus  stm32f10x_exti.o
    0x08000a88   0x08000a88   0x00000074   Code   RO          990    i.EXTI_Init         stm32f10x_exti.o
    0x08000afc   0x08000afc   0x0000004c   Code   RO         5402    i.Flatten           nnom_flatten.o
    0x08000b48   0x08000b48   0x00000028   Code   RO         1344    i.GPIO_EXTILineConfig  stm32f10x_gpio.o
    0x08000b70   0x08000b70   0x000000a6   Code   RO         1347    i.GPIO_Init         stm32f10x_gpio.o
    0x08000c16   0x08000c16   0x0000000c   Code   RO         1358    i.GPIO_WriteBit     stm32f10x_gpio.o
    0x08000c22   0x08000c22   0x00000002   Code   RO         3726    i.HardFault_Handler  stm32f10x_it.o
    0x08000c24   0x08000c24   0x00000018   Code   RO         1459    i.I2C_AcknowledgeConfig  stm32f10x_i2c.o
    0x08000c3c   0x08000c3c   0x00000018   Code   RO         1461    i.I2C_CheckEvent    stm32f10x_i2c.o
    0x08000c54   0x08000c54   0x00000018   Code   RO         1464    i.I2C_Cmd           stm32f10x_i2c.o
    0x08000c6c   0x08000c6c   0x00000018   Code   RO         1471    i.I2C_GenerateSTART  stm32f10x_i2c.o
    0x08000c84   0x08000c84   0x00000018   Code   RO         1472    i.I2C_GenerateSTOP  stm32f10x_i2c.o
    0x08000c9c   0x08000c9c   0x000000c0   Code   RO         1478    i.I2C_Init          stm32f10x_i2c.o
    0x08000d5c   0x08000d5c   0x00000006   Code   RO         1483    i.I2C_ReceiveData   stm32f10x_i2c.o
    0x08000d62   0x08000d62   0x00000012   Code   RO         1485    i.I2C_Send7bitAddress  stm32f10x_i2c.o
    0x08000d74   0x08000d74   0x00000004   Code   RO         1486    i.I2C_SendData      stm32f10x_i2c.o
    0x08000d78   0x08000d78   0x00000078   Code   RO         3268    i.Key_Init          key.o
    0x08000df0   0x08000df0   0x00000092   Code   RO         3464    i.MPU6050_GetData   mpu6050.o
    0x08000e82   0x08000e82   0x00000030   Code   RO         3465    i.MPU6050_GetDataArray  mpu6050.o
    0x08000eb2   0x08000eb2   0x00000002   PAD
    0x08000eb4   0x08000eb4   0x000000a4   Code   RO         3467    i.MPU6050_Init      mpu6050.o
    0x08000f58   0x08000f58   0x00000098   Code   RO         3468    i.MPU6050_ReadReg   mpu6050.o
    0x08000ff0   0x08000ff0   0x00000020   Code   RO         3469    i.MPU6050_WaitEvent  mpu6050.o
    0x08001010   0x08001010   0x00000068   Code   RO         3470    i.MPU6050_WriteReg  mpu6050.o
    0x08001078   0x08001078   0x000000ac   Code   RO         5660    i.MaxPool           nnom_maxpool.o
    0x08001124   0x08001124   0x00000002   Code   RO         3727    i.MemManage_Handler  stm32f10x_it.o
    0x08001126   0x08001126   0x00000002   Code   RO         3728    i.NMI_Handler       stm32f10x_it.o
    0x08001128   0x08001128   0x00000064   Code   RO          137    i.NVIC_Init         misc.o
    0x0800118c   0x0800118c   0x00000014   Code   RO          138    i.NVIC_PriorityGroupConfig  misc.o
    0x080011a0   0x080011a0   0x00000026   Code   RO         3283    i.OLED_Clear        oled.o
    0x080011c6   0x080011c6   0x00000002   PAD
    0x080011c8   0x080011c8   0x00000050   Code   RO         3284    i.OLED_I2C_Init     oled.o
    0x08001218   0x08001218   0x00000064   Code   RO         3285    i.OLED_I2C_SendByte  oled.o
    0x0800127c   0x0800127c   0x00000038   Code   RO         3286    i.OLED_I2C_Start    oled.o
    0x080012b4   0x080012b4   0x00000030   Code   RO         3287    i.OLED_I2C_Stop     oled.o
    0x080012e4   0x080012e4   0x000000ac   Code   RO         3288    i.OLED_Init         oled.o
    0x08001390   0x08001390   0x00000010   Code   RO         3289    i.OLED_Pow          oled.o
    0x080013a0   0x080013a0   0x00000022   Code   RO         3290    i.OLED_SetCursor    oled.o
    0x080013c2   0x080013c2   0x00000002   PAD
    0x080013c4   0x080013c4   0x00000058   Code   RO         3292    i.OLED_ShowChar     oled.o
    0x0800141c   0x0800141c   0x00000040   Code   RO         3294    i.OLED_ShowNum      oled.o
    0x0800145c   0x0800145c   0x00000026   Code   RO         3296    i.OLED_ShowString   oled.o
    0x08001482   0x08001482   0x00000022   Code   RO         3297    i.OLED_WriteCommand  oled.o
    0x080014a4   0x080014a4   0x00000022   Code   RO         3298    i.OLED_WriteData    oled.o
    0x080014c6   0x080014c6   0x00000002   Code   RO         3729    i.PendSV_Handler    stm32f10x_it.o
    0x080014c8   0x080014c8   0x0000001c   Code   RO         1775    i.RCC_APB1PeriphClockCmd  stm32f10x_rcc.o
    0x080014e4   0x080014e4   0x0000001c   Code   RO         1777    i.RCC_APB2PeriphClockCmd  stm32f10x_rcc.o
    0x08001500   0x08001500   0x000000ac   Code   RO         1785    i.RCC_GetClocksFreq  stm32f10x_rcc.o
    0x080015ac   0x080015ac   0x00000002   Code   RO         3730    i.SVC_Handler       stm32f10x_it.o
    0x080015ae   0x080015ae   0x00000044   Code   RO         3391    i.Serial_AutoSendNumber  serial.o
    0x080015f2   0x080015f2   0x00000002   PAD
    0x080015f4   0x080015f4   0x0000006c   Code   RO         3392    i.Serial_Init       serial.o
    0x08001660   0x08001660   0x00000020   Code   RO         3396    i.Serial_SendByte   serial.o
    0x08001680   0x08001680   0x00000068   Code   RO         3397    i.Serial_SendFloat  serial.o
    0x080016e8   0x080016e8   0x00000018   Code   RO         3399    i.Serial_SendString  serial.o
    0x08001700   0x08001700   0x00000004   Code   RO           24    i.SetSysClock       system_stm32f10x.o
    0x08001704   0x08001704   0x000000b0   Code   RO           25    i.SetSysClockTo72   system_stm32f10x.o
    0x080017b4   0x080017b4   0x00000048   Code   RO         5798    i.Softmax           nnom_softmax.o
    0x080017fc   0x080017fc   0x00000002   Code   RO         3731    i.SysTick_Handler   stm32f10x_it.o
    0x080017fe   0x080017fe   0x00000002   PAD
    0x08001800   0x08001800   0x00000050   Code   RO           27    i.SystemInit        system_stm32f10x.o
    0x08001850   0x08001850   0x00000018   Code   RO         2960    i.USART_Cmd         stm32f10x_usart.o
    0x08001868   0x08001868   0x0000000e   Code   RO         2963    i.USART_GetFlagStatus  stm32f10x_usart.o
    0x08001876   0x08001876   0x00000002   PAD
    0x08001878   0x08001878   0x000000bc   Code   RO         2967    i.USART_Init        stm32f10x_usart.o
    0x08001934   0x08001934   0x00000008   Code   RO         2977    i.USART_SendData    stm32f10x_usart.o
    0x0800193c   0x0800193c   0x00000002   Code   RO         3732    i.UsageFault_Handler  stm32f10x_it.o
    0x0800193e   0x0800193e   0x00000002   PAD
    0x08001940   0x08001940   0x00000020   Code   RO         6168    i.__0printf         mc_w.l(printfa.o)
    0x08001960   0x08001960   0x0000001c   Code   RO         3787    i.__NNOM_SSAT       nnom_local.o
    0x0800197c   0x0800197c   0x0000001c   Code   RO         4124    i.__NNOM_SSAT       nnom_local_q15.o
    0x08001998   0x08001998   0x00000018   Code   RO         3788    i.__NNOM_USAT       nnom_local.o
    0x080019b0   0x080019b0   0x0000000e   Code   RO         6270    i.__scatterload_copy  mc_w.l(handlers.o)
    0x080019be   0x080019be   0x00000002   Code   RO         6271    i.__scatterload_null  mc_w.l(handlers.o)
    0x080019c0   0x080019c0   0x0000000e   Code   RO         6272    i.__scatterload_zeroinit  mc_w.l(handlers.o)
    0x080019ce   0x080019ce   0x00000002   PAD
    0x080019d0   0x080019d0   0x00000184   Code   RO         6175    i._fp_digits        mc_w.l(printfa.o)
    0x08001b54   0x08001b54   0x000006dc   Code   RO         6176    i._printf_core      mc_w.l(printfa.o)
    0x08002230   0x08002230   0x00000024   Code   RO         6177    i._printf_post_padding  mc_w.l(printfa.o)
    0x08002254   0x08002254   0x0000002e   Code   RO         6178    i._printf_pre_padding  mc_w.l(printfa.o)
    0x08002282   0x08002282   0x00000018   Code   RO         4993    i.act_get_dec_bit   nnom_activation.o
    0x0800229a   0x0800229a   0x00000002   PAD
    0x0800229c   0x0800229c   0x0000001c   Code   RO         4997    i.act_relu          nnom_activation.o
    0x080022b8   0x080022b8   0x00000034   Code   RO         4371    i.allocate_block    nnom.o
    0x080022ec   0x080022ec   0x0000002c   Code   RO         4372    i.allocate_hook     nnom.o
    0x08002318   0x08002318   0x00000034   Code   RO         4373    i.allocate_io       nnom.o
    0x0800234c   0x0800234c   0x00000022   Code   RO         4374    i.block_mem_set     nnom.o
    0x0800236e   0x0800236e   0x00000002   PAD
    0x08002370   0x08002370   0x0000009c   Code   RO         4375    i.check_model_version  nnom.o
    0x0800240c   0x0800240c   0x0000021a   Code   RO         4376    i.compile_layers    nnom.o
    0x08002626   0x08002626   0x000000f4   Code   RO         5228    i.conv2d_build      nnom_conv2d.o
    0x0800271a   0x0800271a   0x0000001a   Code   RO         5229    i.conv2d_free       nnom_conv2d.o
    0x08002734   0x08002734   0x00000106   Code   RO         5230    i.conv2d_run        nnom_conv2d.o
    0x0800283a   0x0800283a   0x00000002   PAD
    0x0800283c   0x0800283c   0x00000148   Code   RO         5231    i.conv2d_s          nnom_conv2d.o
    0x08002984   0x08002984   0x00000024   Code   RO         5232    i.conv_output_length  nnom_conv2d.o
    0x080029a8   0x080029a8   0x0000004a   Code   RO         5166    i.default_build     nnom_baselayer.o
    0x080029f2   0x080029f2   0x0000000a   Code   RO         4754    i.delete_tensor     nnom_tensor.o
    0x080029fc   0x080029fc   0x000000d0   Code   RO         5336    i.dense_build       nnom_dense.o
    0x08002acc   0x08002acc   0x0000001a   Code   RO         5337    i.dense_free        nnom_dense.o
    0x08002ae6   0x08002ae6   0x0000005a   Code   RO         5338    i.dense_run         nnom_dense.o
    0x08002b40   0x08002b40   0x0000007c   Code   RO         5339    i.dense_s           nnom_dense.o
    0x08002bbc   0x08002bbc   0x00000006   Code   RO         4700    i.dilation          nnom_layers.o
    0x08002bc2   0x08002bc2   0x00000012   Code   RO         4377    i.find_last         nnom.o
    0x08002bd4   0x08002bd4   0x0000004c   Code   RO         5403    i.flatten_build     nnom_flatten.o
    0x08002c20   0x08002c20   0x00000004   Code   RO         5404    i.flatten_run       nnom_flatten.o
    0x08002c24   0x08002c24   0x00000010   Code   RO         5405    i.flatten_s         nnom_flatten.o
    0x08002c34   0x08002c34   0x0000000e   Code   RO         3400    i.fputc             serial.o
    0x08002c42   0x08002c42   0x0000002a   Code   RO         5511    i.input_build       nnom_input.o
    0x08002c6c   0x08002c6c   0x0000001e   Code   RO         5512    i.input_run         nnom_input.o
    0x08002c8a   0x08002c8a   0x00000002   PAD
    0x08002c8c   0x08002c8c   0x000000f0   Code   RO         5513    i.input_s           nnom_input.o
    0x08002d7c   0x08002d7c   0x00000008   Code   RO         4702    i.io_init           nnom_layers.o
    0x08002d84   0x08002d84   0x0000001e   Code   RO         4379    i.io_mem_size       nnom.o
    0x08002da2   0x08002da2   0x00000006   Code   RO         4703    i.kernel            nnom_layers.o
    0x08002da8   0x08002da8   0x00000044   Code   RO         4382    i.layer_run         nnom.o
    0x08002dec   0x08002dec   0x00000020   Code   RO         4383    i.layer_shortcut_add  nnom.o
    0x08002e0c   0x08002e0c   0x000001ca   Code   RO         4135    i.local_convolve_HWC_q15_nonsquare  nnom_local_q15.o
    0x08002fd6   0x08002fd6   0x000001b0   Code   RO         3796    i.local_convolve_HWC_q7_nonsquare  nnom_local.o
    0x08003186   0x08003186   0x00000238   Code   RO         3804    i.local_fully_connected_q7_opt  nnom_local.o
    0x080033be   0x080033be   0x000000ac   Code   RO         3809    i.local_maxpool_q7_HWC  nnom_local.o
    0x0800346a   0x0800346a   0x0000001c   Code   RO         4153    i.local_relu_q15    nnom_local_q15.o
    0x08003486   0x08003486   0x00000018   Code   RO         3817    i.local_relu_q7     nnom_local.o
    0x0800349e   0x0800349e   0x00000088   Code   RO         3819    i.local_softmax_q7  nnom_local.o
    0x08003526   0x08003526   0x00000002   PAD
    0x08003528   0x08003528   0x000000ec   Code   RO         3519    i.main              main.o
    0x08003614   0x08003614   0x000000e0   Code   RO         5661    i.maxpool_build     nnom_maxpool.o
    0x080036f4   0x080036f4   0x00000056   Code   RO         5662    i.maxpool_run       nnom_maxpool.o
    0x0800374a   0x0800374a   0x00000062   Code   RO         5663    i.maxpool_s         nnom_maxpool.o
    0x080037ac   0x080037ac   0x0000008c   Code   RO         4384    i.mem_analysis_result  nnom.o
    0x08003838   0x08003838   0x00000008   Code   RO         4385    i.model_active      nnom.o
    0x08003840   0x08003840   0x00000038   Code   RO         4386    i.model_add         nnom.o
    0x08003878   0x08003878   0x000001e8   Code   RO         4387    i.model_compile     nnom.o
    0x08003a60   0x08003a60   0x00000154   Code   RO         3520    i.model_feed_data   main.o
    0x08003bb4   0x08003bb4   0x00000028   Code   RO         4390    i.model_hook        nnom.o
    0x08003bdc   0x08003bdc   0x0000000a   Code   RO         4391    i.model_merge       nnom.o
    0x08003be6   0x08003be6   0x00000032   Code   RO         4392    i.model_mergex      nnom.o
    0x08003c18   0x08003c18   0x00000006   Code   RO         4393    i.model_run         nnom.o
    0x08003c1e   0x08003c1e   0x00000002   PAD
    0x08003c20   0x08003c20   0x0000010c   Code   RO         4394    i.model_run_to      nnom.o
    0x08003d2c   0x08003d2c   0x00000022   Code   RO         4396    i.model_set_ops     nnom.o
    0x08003d4e   0x08003d4e   0x00000002   PAD
    0x08003d50   0x08003d50   0x00000054   Code   RO         4397    i.new_model         nnom.o
    0x08003da4   0x08003da4   0x00000090   Code   RO         4756    i.new_tensor        nnom_tensor.o
    0x08003e34   0x08003e34   0x0000001a   Code   RO         4398    i.nnom_alignto      nnom.o
    0x08003e4e   0x08003e4e   0x00000002   Code   RO         4399    i.nnom_free         nnom.o
    0x08003e50   0x08003e50   0x00000014   Code   RO         4400    i.nnom_hook_length  nnom.o
    0x08003e64   0x08003e64   0x00000040   Code   RO         4402    i.nnom_malloc       nnom.o
    0x08003ea4   0x08003ea4   0x0000002c   Code   RO         4403    i.nnom_mem          nnom.o
    0x08003ed0   0x08003ed0   0x000000bc   Code   RO         3521    i.nnom_model_create  main.o
    0x08003f8c   0x08003f8c   0x00000010   Code   RO         4405    i.nnom_set_static_buf  nnom.o
    0x08003f9c   0x08003f9c   0x0000001e   Code   RO         5691    i.output_run        nnom_output.o
    0x08003fba   0x08003fba   0x00000002   PAD
    0x08003fbc   0x08003fbc   0x00000030   Code   RO         5692    i.output_s          nnom_output.o
    0x08003fec   0x08003fec   0x000001c8   Code   RO         4406    i.print_layer_info  nnom.o
    0x080041b4   0x080041b4   0x00000054   Code   RO         4407    i.print_memory_block_info  nnom.o
    0x08004208   0x08004208   0x00000014   Code   RO         4408    i.release_block     nnom.o
    0x0800421c   0x0800421c   0x0000000e   Code   RO         4409    i.release_comp_mem  nnom.o
    0x0800422a   0x0800422a   0x00000014   Code   RO         4410    i.release_input_mem  nnom.o
    0x0800423e   0x0800423e   0x0000002e   Code   RO         5007    i.relu_run          nnom_activation.o
    0x0800426c   0x0800426c   0x00000094   Code   RO         5918    i.round             m_ws.l(round.o)
    0x08004300   0x08004300   0x00000054   Code   RO         4412    i.set_tailed_activation  nnom.o
    0x08004354   0x08004354   0x0000001a   Code   RO         4704    i.shape             nnom_layers.o
    0x0800436e   0x0800436e   0x0000003a   Code   RO         5799    i.softmax_build     nnom_softmax.o
    0x080043a8   0x080043a8   0x00000022   Code   RO         5800    i.softmax_run       nnom_softmax.o
    0x080043ca   0x080043ca   0x00000010   Code   RO         5801    i.softmax_s         nnom_softmax.o
    0x080043da   0x080043da   0x00000006   Code   RO         4706    i.stride            nnom_layers.o
    0x080043e0   0x080043e0   0x00000056   Code   RO         4758    i.tensor_cpy_attr   nnom_tensor.o
    0x08004436   0x08004436   0x0000000c   Code   RO         4759    i.tensor_get_num_channel  nnom_tensor.o
    0x08004442   0x08004442   0x00000032   Code   RO         4413    i.tensor_mem_set    nnom.o
    0x08004474   0x08004474   0x0000004a   Code   RO         4761    i.tensor_set_attr   nnom_tensor.o
    0x080044be   0x080044be   0x0000002a   Code   RO         4762    i.tensor_set_attr_v  nnom_tensor.o
    0x080044e8   0x080044e8   0x00000022   Code   RO         4763    i.tensor_size       nnom_tensor.o
    0x0800450a   0x0800450a   0x000005f0   Data   RO         3299    .constdata          oled.o
    0x08004afa   0x08004afa   0x00000004   Data   RO         3523    .constdata          main.o
    0x08004afe   0x08004afe   0x00000002   PAD
    0x08004b00   0x08004b00   0x00000004   Data   RO         3524    .constdata          main.o
    0x08004b04   0x08004b04   0x00000004   Data   RO         3525    .constdata          main.o
    0x08004b08   0x08004b08   0x00000014   Data   RO         3526    .constdata          main.o
    0x08004b1c   0x08004b1c   0x00000090   Data   RO         3527    .constdata          main.o
    0x08004bac   0x08004bac   0x0000010e   Data   RO         3528    .constdata          main.o
    0x08004cba   0x08004cba   0x00000006   Data   RO         3529    .constdata          main.o
    0x08004cc0   0x08004cc0   0x00000004   Data   RO         3530    .constdata          main.o
    0x08004cc4   0x08004cc4   0x00000004   Data   RO         3531    .constdata          main.o
    0x08004cc8   0x08004cc8   0x00000014   Data   RO         3532    .constdata          main.o
    0x08004cdc   0x08004cdc   0x0000001e   Data   RO         3533    .constdata          main.o
    0x08004cfa   0x08004cfa   0x00000002   Data   RO         3534    .constdata          main.o
    0x08004cfc   0x08004cfc   0x00000004   Data   RO         3535    .constdata          main.o
    0x08004d00   0x08004d00   0x00000004   Data   RO         3536    .constdata          main.o
    0x08004d04   0x08004d04   0x00000014   Data   RO         3537    .constdata          main.o
    0x08004d18   0x08004d18   0x00000004   Data   RO         3538    .constdata          main.o
    0x08004d1c   0x08004d1c   0x00000004   Data   RO         3539    .constdata          main.o
    0x08004d20   0x08004d20   0x00000546   Data   RO         3540    .constdata          main.o
    0x08005266   0x08005266   0x00000006   Data   RO         3541    .constdata          main.o
    0x0800526c   0x0800526c   0x00000004   Data   RO         3542    .constdata          main.o
    0x08005270   0x08005270   0x00000004   Data   RO         3543    .constdata          main.o
    0x08005274   0x08005274   0x00000014   Data   RO         3544    .constdata          main.o
    0x08005288   0x08005288   0x0000000f   Data   RO         3545    .constdata          main.o
    0x08005297   0x08005297   0x00000001   PAD
    0x08005298   0x08005298   0x00000002   Data   RO         3546    .constdata          main.o
    0x0800529a   0x0800529a   0x00000002   PAD
    0x0800529c   0x0800529c   0x00000004   Data   RO         3547    .constdata          main.o
    0x080052a0   0x080052a0   0x00000004   Data   RO         3548    .constdata          main.o
    0x080052a4   0x080052a4   0x00000014   Data   RO         3549    .constdata          main.o
    0x080052b8   0x080052b8   0x00000004   Data   RO         3550    .constdata          main.o
    0x080052bc   0x080052bc   0x00000004   Data   RO         3551    .constdata          main.o
    0x080052c0   0x080052c0   0x000003cf   Data   RO         3552    .constdata          main.o
    0x0800568f   0x0800568f   0x00000001   PAD
    0x08005690   0x08005690   0x00000004   Data   RO         3553    .constdata          main.o
    0x08005694   0x08005694   0x00000004   Data   RO         3554    .constdata          main.o
    0x08005698   0x08005698   0x00000004   Data   RO         3555    .constdata          main.o
    0x0800569c   0x0800569c   0x00000014   Data   RO         3556    .constdata          main.o
    0x080056b0   0x080056b0   0x0000000d   Data   RO         3557    .constdata          main.o
    0x080056bd   0x080056bd   0x00000001   PAD
    0x080056be   0x080056be   0x00000002   Data   RO         3558    .constdata          main.o
    0x080056c0   0x080056c0   0x00000004   Data   RO         3559    .constdata          main.o
    0x080056c4   0x080056c4   0x00000004   Data   RO         3560    .constdata          main.o
    0x080056c8   0x080056c8   0x00000014   Data   RO         3561    .constdata          main.o
    0x080056dc   0x080056dc   0x00000004   Data   RO         3562    .constdata          main.o
    0x080056e0   0x080056e0   0x00000004   Data   RO         3563    .constdata          main.o
    0x080056e4   0x080056e4   0x00000002   Data   RO         3564    .constdata          main.o
    0x080056e6   0x080056e6   0x00000002   PAD
    0x080056e8   0x080056e8   0x00000004   Data   RO         3565    .constdata          main.o
    0x080056ec   0x080056ec   0x00000004   Data   RO         3566    .constdata          main.o
    0x080056f0   0x080056f0   0x00000014   Data   RO         3567    .constdata          main.o
    0x08005704   0x08005704   0x000001ec   Data   RO         4414    .constdata          nnom.o
    0x080058f0   0x080058f0   0x00000004   Data   RO         5340    .constdata          nnom_dense.o
    0x080058f4   0x080058f4   0x0000004c   Data   RO         3568    .conststring        main.o
    0x08005940   0x08005940   0x000002bd   Data   RO         4415    .conststring        nnom.o
    0x08005bfd   0x08005bfd   0x00000003   PAD
    0x08005c00   0x08005c00   0x00000020   Data   RO         6268    Region$$Table       anon$$obj.o


    Execution Region RW_IRAM1 (Exec base: 0x20000000, Load base: 0x08005c20, Size: 0x00002d90, Max: 0x00005000, ABSOLUTE)

    Exec Addr    Load Addr    Size         Type   Attr      Idx    E Section Name        Object

    0x20000000   0x08005c20   0x00000014   Data   RW         1805    .data               stm32f10x_rcc.o
    0x20000014   0x08005c34   0x00000008   Data   RW         3570    .data               main.o
    0x2000001c   0x08005c3c   0x00000010   Data   RW         4416    .data               nnom.o
    0x2000002c   0x08005c4c   0x00000004   Data   RW         6242    .data               mc_w.l(stdout.o)
    0x20000030        -       0x00002960   Zero   RW         3522    .bss                main.o
    0x20002990        -       0x00000400   Zero   RW            1    STACK               startup_stm32f10x_md.o


==============================================================================

Image component sizes


      Code (inc. data)   RO Data    RW Data    ZI Data      Debug   Object Name

         0          0          0          0          0       4508   core_cm3.o
       120          6          0          0          0        559   key.o
       800         84       3149          8      10592      30896   main.o
       120         14          0          0          0     206899   misc.o
       646         34          0          0          0       4565   mpu6050.o
      3108        874       1193         16          0      27482   nnom.o
        98         12          0          0          0       1721   nnom_activation.o
        74          0          0          0          0        568   nnom_baselayer.o
       896         14          0          0          0       4162   nnom_conv2d.o
       448         20          4          0          0       3353   nnom_dense.o
       172         10          0          0          0       2840   nnom_flatten.o
       312         10          0          0          0       2376   nnom_input.o
        52          0          0          0          0       3211   nnom_layers.o
      1384          0          0          0          0      19709   nnom_local.o
       514          0          0          0          0       4764   nnom_local_q15.o
       580          8          0          0          0       3432   nnom_maxpool.o
        78          8          0          0          0       1608   nnom_output.o
       180          8          0          0          0       2848   nnom_softmax.o
       402         38          0          0          0       5208   nnom_tensor.o
       802         26       1520          0          0       7589   oled.o
       350         22          0          0          0       5115   serial.o
        36          8        236          0       1024        808   startup_stm32f10x_md.o
         0          0          0          0          0       1648   stm32f10x_adc.o
       160         16          0          0          0       4200   stm32f10x_exti.o
       218          6          0          0          0      11386   stm32f10x_gpio.o
       340         10          0          0          0      14732   stm32f10x_i2c.o
        18          0          0          0          0       3642   stm32f10x_it.o
       228         30          0         20          0      13106   stm32f10x_rcc.o
       234          6          0          0          0       9988   stm32f10x_usart.o
       260         26          0          0          0      32729   system_stm32f10x.o

    ----------------------------------------------------------------------
     12660       1290       6146         44      11616     435652   Object Totals
         0          0         32          0          0          0   (incl. Generated)
        30          0         12          0          0          0   (incl. Padding)

    ----------------------------------------------------------------------

      Code (inc. data)   RO Data    RW Data    ZI Data      Debug   Library Member Name

       148         12          0          0          0         88   round.o
         0          0          0          0          0          0   entry.o
         0          0          0          0          0          0   entry10a.o
         0          0          0          0          0          0   entry11a.o
         8          4          0          0          0          0   entry2.o
         4          0          0          0          0          0   entry5.o
         0          0          0          0          0          0   entry7b.o
         0          0          0          0          0          0   entry8b.o
         8          4          0          0          0          0   entry9a.o
        30          0          0          0          0          0   handlers.o
        36          8          0          0          0         68   init.o
         0          0          0          0          0          0   iusefp.o
        30          0          0          0          0         68   llshl.o
        36          0          0          0          0         68   llsshr.o
        32          0          0          0          0         68   llushr.o
        36          0          0          0          0         68   memcpya.o
        36          0          0          0          0        108   memseta.o
      2258         90          0          0          0        452   printfa.o
         0          0          0          4          0          0   stdout.o
        44          0          0          0          0         80   uidiv.o
        98          0          0          0          0         92   uldiv.o
        48          0          0          0          0         68   cdcmple.o
        48          0          0          0          0         68   cdrcmple.o
        56          0          0          0          0         88   d2f.o
       334          0          0          0          0        148   dadd.o
       222          0          0          0          0        100   ddiv.o
       186          0          0          0          0        176   depilogue.o
        62          0          0          0          0         80   dfixi.o
        50          0          0          0          0         76   dfixui.o
        48          0          0          0          0         68   dfixul.o
        34          0          0          0          0         76   dflti.o
       228          0          0          0          0         96   dmul.o
       136          4          0          0          0         92   drnd.o
        46          0          0          0          0         80   dscalb.o
        38          0          0          0          0         68   f2d.o
       176          0          0          0          0        140   fadd.o
       110          0          0          0          0        168   fepilogue.o
        40          0          0          0          0         68   ffixui.o
        10          0          0          0          0         68   ffltui.o
       100          0          0          0          0         76   fmul.o

    ----------------------------------------------------------------------
      4778        122          0          4          0       2964   Library Totals
         2          0          0          0          0          0   (incl. Padding)

    ----------------------------------------------------------------------

      Code (inc. data)   RO Data    RW Data    ZI Data      Debug   Library Name

       148         12          0          0          0         88   m_ws.l
      2656        106          0          4          0       1072   mc_w.l
      1972          4          0          0          0       1804   mf_w.l

    ----------------------------------------------------------------------
      4778        122          0          4          0       2964   Library Totals

    ----------------------------------------------------------------------

==============================================================================


      Code (inc. data)   RO Data    RW Data    ZI Data      Debug   

     17438       1412       6146         48      11616     429512   Grand Totals
     17438       1412       6146         48      11616     429512   ELF Image Totals
     17438       1412       6146         48          0          0   ROM Totals

==============================================================================

    Total RO  Size (Code + RO Data)                23584 (  23.03kB)
    Total RW  Size (RW Data + ZI Data)             11664 (  11.39kB)
    Total ROM Size (Code + RO Data + RW Data)      23632 (  23.08kB)

==============================================================================

